
723_Assignment1.elf:     file format elf32-littlenios2
723_Assignment1.elf
architecture: nios2:r1, flags 0x00000112:
EXEC_P, HAS_SYMS, D_PAGED
start address 0x00000254

Program Header:
    LOAD off    0x00001020 vaddr 0x00000020 paddr 0x00000020 align 2**12
         filesz 0x00020054 memsz 0x00020054 flags r-x
    LOAD off    0x00022000 vaddr 0x01000000 paddr 0x01000000 align 2**12
         filesz 0x00000000 memsz 0x00000000 flags r-x
    LOAD off    0x00022000 vaddr 0x08000000 paddr 0x08000000 align 2**12
         filesz 0x00002dac memsz 0x000801c8 flags rw-

Sections:
Idx Name          Size      VMA       LMA       File off  Algn
  0 .entry        00000000  01000000  01000000  00022000  2**5
                  CONTENTS, ALLOC, LOAD, READONLY, CODE
  1 .exceptions   00000234  00000020  00000020  00001020  2**2
                  CONTENTS, ALLOC, LOAD, READONLY, CODE
  2 .text         0001fe20  00000254  00000254  00001254  2**2
                  CONTENTS, ALLOC, LOAD, READONLY, CODE
  3 .rodata       00000c2c  08000000  08000000  00022000  2**2
                  CONTENTS, ALLOC, LOAD, READONLY, DATA
  4 .rwdata       00002180  08000c2c  08000c2c  00022c2c  2**2
                  CONTENTS, ALLOC, LOAD, DATA, SMALL_DATA
  5 .bss          0007d41c  08002dac  08002dac  00024dac  2**2
                  ALLOC, SMALL_DATA
  6 .onchip_memory 00000000  00020074  00020074  00024dac  2**0
                  CONTENTS
  7 .flash_controller 00000000  01000020  01000020  00024dac  2**0
                  CONTENTS
  8 .sdram        00000000  080801c8  080801c8  00024dac  2**0
                  CONTENTS
  9 .comment      00000023  00000000  00000000  00024dac  2**0
                  CONTENTS, READONLY
 10 .debug_aranges 000012b8  00000000  00000000  00024dd0  2**3
                  CONTENTS, READONLY, DEBUGGING
 11 .debug_info   00035eda  00000000  00000000  00026088  2**0
                  CONTENTS, READONLY, DEBUGGING
 12 .debug_abbrev 0000cc39  00000000  00000000  0005bf62  2**0
                  CONTENTS, READONLY, DEBUGGING
 13 .debug_line   00011a3e  00000000  00000000  00068b9b  2**0
                  CONTENTS, READONLY, DEBUGGING
 14 .debug_frame  000046dc  00000000  00000000  0007a5dc  2**2
                  CONTENTS, READONLY, DEBUGGING
 15 .debug_str    00006710  00000000  00000000  0007ecb8  2**0
                  CONTENTS, READONLY, DEBUGGING
 16 .debug_loc    0001d380  00000000  00000000  000853c8  2**0
                  CONTENTS, READONLY, DEBUGGING
 17 .debug_alt_sim_info 00000050  00000000  00000000  000a2748  2**2
                  CONTENTS, READONLY, DEBUGGING
 18 .debug_ranges 00001b68  00000000  00000000  000a2798  2**3
                  CONTENTS, READONLY, DEBUGGING
 19 .thread_model 00000003  00000000  00000000  000aa66d  2**0
                  CONTENTS, READONLY
 20 .cpu          00000005  00000000  00000000  000aa670  2**0
                  CONTENTS, READONLY
 21 .qsys         00000001  00000000  00000000  000aa675  2**0
                  CONTENTS, READONLY
 22 .simulation_enabled 00000001  00000000  00000000  000aa676  2**0
                  CONTENTS, READONLY
 23 .sysid_hash   00000004  00000000  00000000  000aa677  2**0
                  CONTENTS, READONLY
 24 .sysid_base   00000004  00000000  00000000  000aa67b  2**0
                  CONTENTS, READONLY
 25 .sysid_time   00000004  00000000  00000000  000aa67f  2**0
                  CONTENTS, READONLY
 26 .stderr_dev   00000009  00000000  00000000  000aa683  2**0
                  CONTENTS, READONLY
 27 .stdin_dev    00000009  00000000  00000000  000aa68c  2**0
                  CONTENTS, READONLY
 28 .stdout_dev   00000009  00000000  00000000  000aa695  2**0
                  CONTENTS, READONLY
 29 .sopc_system_name 00000005  00000000  00000000  000aa69e  2**0
                  CONTENTS, READONLY
 30 .quartus_project_dir 00000011  00000000  00000000  000aa6a3  2**0
                  CONTENTS, READONLY
 31 .sopcinfo     000b3e3a  00000000  00000000  000aa6b4  2**0
                  CONTENTS, READONLY
SYMBOL TABLE:
01000000 l    d  .entry	00000000 .entry
00000020 l    d  .exceptions	00000000 .exceptions
00000254 l    d  .text	00000000 .text
08000000 l    d  .rodata	00000000 .rodata
08000c2c l    d  .rwdata	00000000 .rwdata
08002dac l    d  .bss	00000000 .bss
00020074 l    d  .onchip_memory	00000000 .onchip_memory
01000020 l    d  .flash_controller	00000000 .flash_controller
080801c8 l    d  .sdram	00000000 .sdram
00000000 l    d  .comment	00000000 .comment
00000000 l    d  .debug_aranges	00000000 .debug_aranges
00000000 l    d  .debug_info	00000000 .debug_info
00000000 l    d  .debug_abbrev	00000000 .debug_abbrev
00000000 l    d  .debug_line	00000000 .debug_line
00000000 l    d  .debug_frame	00000000 .debug_frame
00000000 l    d  .debug_str	00000000 .debug_str
00000000 l    d  .debug_loc	00000000 .debug_loc
00000000 l    d  .debug_alt_sim_info	00000000 .debug_alt_sim_info
00000000 l    d  .debug_ranges	00000000 .debug_ranges
00000000 l    df *ABS*	00000000 ../723_Assignment1_bsp//obj/HAL/src/crt0.o
00000298 l       .text	00000000 alt_after_alt_main
00000000 l    df *ABS*	00000000 obj/default/FreeRTOS/port_asm.o
00000020 l       .exceptions	00000000 save_context
0000009c l       .exceptions	00000000 save_sp_to_pxCurrentTCB
000000ac l       .exceptions	00000000 hw_irq_test
00000150 l       .exceptions	00000000 soft_exceptions
000000c0 l       .exceptions	00000000 hw_irq_handler
000000d4 l       .exceptions	00000000 restore_context
0000016c l       .exceptions	00000000 call_scheduler
00000000 l    df *ABS*	00000000 alt_irq_handler.c
00000000 l    df *ABS*	00000000 723_Assignment1.c
08002d3c l     O .rwdata	00000008 dThresFreq
08002d44 l     O .rwdata	00000008 dThresRoc
00000000 l    df *ABS*	00000000 croutine.c
08002ed4 l     O .bss	00000028 pxReadyCoRoutineLists
08002efc l     O .bss	00000014 xDelayedCoRoutineList1
08002f10 l     O .bss	00000014 xDelayedCoRoutineList2
08002e1c l     O .bss	00000004 pxDelayedCoRoutineList
08002e20 l     O .bss	00000004 pxOverflowDelayedCoRoutineList
08002f24 l     O .bss	00000014 xPendingReadyCoRoutineList
08002e28 l     O .bss	00000004 uxTopCoRoutineReadyPriority
08002e2c l     O .bss	00000004 xCoRoutineTickCount
08002e30 l     O .bss	00000004 xLastTickCount
08002e34 l     O .bss	00000004 xPassedTicks
000029ac l     F .text	000000a0 prvInitialiseCoRoutineLists
00002688 l     F .text	000000e0 prvCheckPendingReadyList
00002768 l     F .text	00000158 prvCheckDelayedList
00000000 l    df *ABS*	00000000 event_groups.c
00003150 l     F .text	00000070 prvTestWaitCondition
00000000 l    df *ABS*	00000000 heap.c
08002f38 l     O .bss	0007d000 xHeap
08002d4c l     O .rwdata	00000002 heapSTRUCT_SIZE
08002d50 l     O .rwdata	00000004 xTotalHeapSize
08002e38 l     O .bss	00000008 xStart
08002e40 l     O .bss	00000004 pxEnd
08002d54 l     O .rwdata	00000004 xFreeBytesRemaining
00003400 l     F .text	000000c0 prvHeapInit
000034c0 l     F .text	00000134 prvInsertBlockIntoFreeList
00000000 l    df *ABS*	00000000 list.c
00000000 l    df *ABS*	00000000 port.c
000038c4 l     F .text	0000002c prvReadGp
00003a28 l     F .text	0000009c prvSetupTimerInterrupt
00000000 l    df *ABS*	00000000 queue.c
00004880 l     F .text	00000190 prvCopyDataToQueue
00004c30 l     F .text	00000058 prvIsQueueFull
00004aac l     F .text	000000f4 prvUnlockQueue
00004a10 l     F .text	0000009c prvCopyDataFromQueue
00004ba0 l     F .text	00000050 prvIsQueueEmpty
00000000 l    df *ABS*	00000000 tasks.c
0807ff38 l     O .bss	000000f0 pxReadyTasksLists
08080028 l     O .bss	00000014 xDelayedTaskList1
0808003c l     O .bss	00000014 xDelayedTaskList2
08002e48 l     O .bss	00000004 pxDelayedTaskList
08002e4c l     O .bss	00000004 pxOverflowDelayedTaskList
08080050 l     O .bss	00000014 xPendingReadyList
08080064 l     O .bss	00000014 xTasksWaitingTermination
08002e50 l     O .bss	00000004 uxTasksDeleted
08002e54 l     O .bss	00000004 uxCurrentNumberOfTasks
08002e58 l     O .bss	00000004 xTickCount
08002e5c l     O .bss	00000004 uxTopReadyPriority
08002e60 l     O .bss	00000004 xSchedulerRunning
08002e64 l     O .bss	00000004 uxPendedTicks
08002e68 l     O .bss	00000004 xYieldPending
08002e6c l     O .bss	00000004 xNumOfOverflows
08002e70 l     O .bss	00000004 uxTaskNumber
08002d58 l     O .rwdata	00000004 xNextTaskUnblockTime
08002e74 l     O .bss	00000004 uxSchedulerSuspended
00005dcc l     F .text	000000c4 prvAllocateTCBAndStack
00005aa0 l     F .text	0000014c prvInitialiseTCBVariables
00005bec l     F .text	000000ac prvInitialiseTaskLists
00005f98 l     F .text	00000068 prvResetNextTaskUnblockTime
00005d40 l     F .text	0000008c prvAddCurrentTaskToDelayedList
00005a84 l     F .text	0000001c prvIdleTask
0800035d l     O .rodata	00000014 ucExpectedStackBytes.2849
00005c98 l     F .text	000000a8 prvCheckTasksWaitingTermination
00005f54 l     F .text	00000044 prvDeleteTCB
00005e90 l     F .text	00000064 prvTaskCheckFreeStackSpace
00000000 l    df *ABS*	00000000 timers.c
08080078 l     O .bss	00000014 xActiveTimerList1
0808008c l     O .bss	00000014 xActiveTimerList2
08002e78 l     O .bss	00000004 pxCurrentTimerList
08002e7c l     O .bss	00000004 pxOverflowTimerList
08002e80 l     O .bss	00000004 xTimerQueue
000071f8 l     F .text	0000007c prvCheckForValidListAndQueue
00006cd4 l     F .text	0000003c prvTimerTask
00006c1c l     F .text	000000b8 prvProcessExpiredTimer
00006e74 l     F .text	000000dc prvInsertTimerInActiveList
00006db0 l     F .text	00000060 prvGetNextExpireTime
00006d10 l     F .text	000000a0 prvProcessTimerOrBlockTask
00006f50 l     F .text	00000198 prvProcessReceivedCommands
00006e10 l     F .text	00000064 prvSampleTimeNow
08002e84 l     O .bss	00000004 xLastTime.2768
000070e8 l     F .text	00000110 prvSwitchTimerLists
00000000 l    df *ABS*	00000000 adddf3.c
00000000 l    df *ABS*	00000000 divdf3.c
00000000 l    df *ABS*	00000000 gedf2.c
00000000 l    df *ABS*	00000000 ledf2.c
00000000 l    df *ABS*	00000000 muldf3.c
00000000 l    df *ABS*	00000000 subdf3.c
00000000 l    df *ABS*	00000000 fixdfsi.c
00000000 l    df *ABS*	00000000 floatsidf.c
00000000 l    df *ABS*	00000000 floatunsidf.c
00000000 l    df *ABS*	00000000 libgcc2.c
00000000 l    df *ABS*	00000000 lib2-divmod.c
00000000 l    df *ABS*	00000000 libgcc2.c
00000000 l    df *ABS*	00000000 fclose.c
00000000 l    df *ABS*	00000000 fflush.c
00000000 l    df *ABS*	00000000 findfp.c
00009e34 l     F .text	00000008 __fp_unlock
00009e48 l     F .text	0000019c __sinit.part.1
00009fe4 l     F .text	00000008 __fp_lock
00000000 l    df *ABS*	00000000 fopen.c
00000000 l    df *ABS*	00000000 fprintf.c
00000000 l    df *ABS*	00000000 mallocr.c
00000000 l    df *ABS*	00000000 fseek.c
00000000 l    df *ABS*	00000000 fseeko.c
00000000 l    df *ABS*	00000000 fstatr.c
00000000 l    df *ABS*	00000000 fwalk.c
00000000 l    df *ABS*	00000000 fwrite.c
00000000 l    df *ABS*	00000000 impure.c
08000c2c l     O .rwdata	00000424 impure_data
00000000 l    df *ABS*	00000000 int_errno.c
00000000 l    df *ABS*	00000000 makebuf.c
00000000 l    df *ABS*	00000000 mallocr.c
00000000 l    df *ABS*	00000000 memcmp.c
00000000 l    df *ABS*	00000000 memcpy.c
00000000 l    df *ABS*	00000000 memset.c
00000000 l    df *ABS*	00000000 openr.c
00000000 l    df *ABS*	00000000 printf.c
00000000 l    df *ABS*	00000000 puts.c
00000000 l    df *ABS*	00000000 refill.c
0000bd18 l     F .text	0000001c lflush
00000000 l    df *ABS*	00000000 sbrkr.c
00000000 l    df *ABS*	00000000 sprintf.c
00000000 l    df *ABS*	00000000 stdio.c
00000000 l    df *ABS*	00000000 strlen.c
00000000 l    df *ABS*	00000000 vfprintf.c
080004c6 l     O .rodata	00000010 zeroes.4389
080004d6 l     O .rodata	00000010 blanks.4388
00000000 l    df *ABS*	00000000 vfprintf.c
080004e6 l     O .rodata	00000010 zeroes.4404
000105e0 l     F .text	000000bc __sbprintf
080004f6 l     O .rodata	00000010 blanks.4403
00000000 l    df *ABS*	00000000 writer.c
00000000 l    df *ABS*	00000000 wsetup.c
00000000 l    df *ABS*	00000000 closer.c
00000000 l    df *ABS*	00000000 dtoa.c
000108a4 l     F .text	00000200 quorem
00000000 l    df *ABS*	00000000 flags.c
00000000 l    df *ABS*	00000000 fvwrite.c
00000000 l    df *ABS*	00000000 isattyr.c
00000000 l    df *ABS*	00000000 locale.c
08001478 l     O .rwdata	00000020 lc_ctype_charset
08001458 l     O .rwdata	00000020 lc_message_charset
08001498 l     O .rwdata	00000038 lconv
00000000 l    df *ABS*	00000000 lseekr.c
00000000 l    df *ABS*	00000000 memchr.c
00000000 l    df *ABS*	00000000 memmove.c
00000000 l    df *ABS*	00000000 mprec.c
08000524 l     O .rodata	0000000c p05.2768
00000000 l    df *ABS*	00000000 readr.c
00000000 l    df *ABS*	00000000 mallocr.c
00000000 l    df *ABS*	00000000 s_fpclassify.c
00000000 l    df *ABS*	00000000 strcmp.c
00000000 l    df *ABS*	00000000 vfprintf.c
08000658 l     O .rodata	00000010 blanks.4332
08000648 l     O .rodata	00000010 zeroes.4333
00000000 l    df *ABS*	00000000 vfprintf.c
00015580 l     F .text	000000fc __sprint_r.part.0
08000678 l     O .rodata	00000010 blanks.4348
08000668 l     O .rodata	00000010 zeroes.4349
00016b0c l     F .text	000000bc __sbprintf
00000000 l    df *ABS*	00000000 mallocr.c
00000000 l    df *ABS*	00000000 fputwc.c
00000000 l    df *ABS*	00000000 wbuf.c
00000000 l    df *ABS*	00000000 wcrtomb.c
00000000 l    df *ABS*	00000000 wctomb_r.c
00000000 l    df *ABS*	00000000 libgcc2.c
00000000 l    df *ABS*	00000000 libgcc2.c
00000000 l    df *ABS*	00000000 eqdf2.c
00000000 l    df *ABS*	00000000 alt_close.c
00017d0c l     F .text	0000003c alt_get_errno
00000000 l    df *ABS*	00000000 alt_dev.c
00017e18 l     F .text	0000002c alt_dev_null_write
00000000 l    df *ABS*	00000000 alt_errno.c
00000000 l    df *ABS*	00000000 alt_fstat.c
00017e44 l     F .text	0000003c alt_get_errno
00000000 l    df *ABS*	00000000 alt_irq_vars.c
00000000 l    df *ABS*	00000000 alt_isatty.c
00017f30 l     F .text	0000003c alt_get_errno
00000000 l    df *ABS*	00000000 alt_lseek.c
00018010 l     F .text	0000003c alt_get_errno
00000000 l    df *ABS*	00000000 alt_main.c
00000000 l    df *ABS*	00000000 alt_malloc_lock.c
00000000 l    df *ABS*	00000000 alt_open.c
000181e4 l     F .text	0000003c alt_get_errno
00018220 l     F .text	000000c4 alt_file_locked
00000000 l    df *ABS*	00000000 alt_read.c
00018438 l     F .text	0000003c alt_get_errno
00000000 l    df *ABS*	00000000 alt_release_fd.c
00000000 l    df *ABS*	00000000 alt_sbrk.c
08002d90 l     O .rwdata	00000004 heap_end
00000000 l    df *ABS*	00000000 alt_write.c
00018684 l     F .text	0000003c alt_get_errno
00000000 l    df *ABS*	00000000 alt_sys_init.c
000187b8 l     F .text	00000034 alt_dev_reg
08001678 l     O .rwdata	000000dc flash_controller
08001754 l     O .rwdata	00001060 jtag_uart
080027b4 l     O .rwdata	00000120 character_lcd
080028d4 l     O .rwdata	000000c4 uart
08002998 l     O .rwdata	00000038 ps2
080029d0 l     O .rwdata	00000048 video_character_buffer_with_dma
08002a18 l     O .rwdata	00000054 video_pixel_buffer_dma
00000000 l    df *ABS*	00000000 altera_avalon_cfi_flash.c
00018b78 l     F .text	00000034 alt_flash_device_register
00000000 l    df *ABS*	00000000 altera_avalon_cfi_flash_table.c
000199c8 l     F .text	00000080 alt_read_16bit_query_entry
00000000 l    df *ABS*	00000000 altera_avalon_jtag_uart_fd.c
00000000 l    df *ABS*	00000000 altera_avalon_jtag_uart_init.c
0001aa70 l     F .text	00000210 altera_avalon_jtag_uart_irq
0001ac80 l     F .text	000000a0 altera_avalon_jtag_uart_timeout
00000000 l    df *ABS*	00000000 altera_avalon_jtag_uart_ioctl.c
00000000 l    df *ABS*	00000000 altera_avalon_jtag_uart_read.c
00000000 l    df *ABS*	00000000 altera_avalon_jtag_uart_write.c
00000000 l    df *ABS*	00000000 altera_avalon_lcd_16207.c
08002d94 l     O .rwdata	00000004 colstart
0001b2b8 l     F .text	000000b8 lcd_write_command
0001b370 l     F .text	000000d8 lcd_write_data
0001b448 l     F .text	000000d0 lcd_clear_screen
0001b518 l     F .text	000001f0 lcd_repaint_screen
0001b708 l     F .text	000000cc lcd_scroll_up
0001b7d4 l     F .text	000002ac lcd_handle_escape
0001bf54 l     F .text	000000ac alt_lcd_16207_timeout
00000000 l    df *ABS*	00000000 altera_avalon_lcd_16207_fd.c
00000000 l    df *ABS*	00000000 altera_avalon_timer_sc.c
0001c190 l     F .text	0000007c alt_avalon_timer_sc_irq
00000000 l    df *ABS*	00000000 altera_avalon_uart_fd.c
00000000 l    df *ABS*	00000000 altera_avalon_uart_init.c
0001c434 l     F .text	000000a0 altera_avalon_uart_irq
0001c4d4 l     F .text	000000e4 altera_avalon_uart_rxirq
0001c5b8 l     F .text	00000148 altera_avalon_uart_txirq
00000000 l    df *ABS*	00000000 altera_avalon_uart_read.c
0001c754 l     F .text	0000003c alt_get_errno
00000000 l    df *ABS*	00000000 altera_avalon_uart_write.c
0001c96c l     F .text	0000003c alt_get_errno
00000000 l    df *ABS*	00000000 altera_up_avalon_ps2.c
00000000 l    df *ABS*	00000000 altera_up_avalon_video_character_buffer_with_dma.c
00000000 l    df *ABS*	00000000 altera_up_avalon_video_pixel_buffer_dma.c
00000000 l    df *ABS*	00000000 altera_up_ps2_keyboard.c
08002eb4 l     O .bss	00000004 state.2101
00000000 l    df *ABS*	00000000 alt_alarm_start.c
00000000 l    df *ABS*	00000000 alt_dcache_flush.c
00000000 l    df *ABS*	00000000 alt_dev_llist_insert.c
0001eb18 l     F .text	0000003c alt_get_errno
00000000 l    df *ABS*	00000000 alt_do_ctors.c
00000000 l    df *ABS*	00000000 alt_do_dtors.c
00000000 l    df *ABS*	00000000 alt_find_dev.c
00000000 l    df *ABS*	00000000 alt_find_file.c
00000000 l    df *ABS*	00000000 alt_flash_dev.c
00000000 l    df *ABS*	00000000 alt_get_fd.c
00000000 l    df *ABS*	00000000 alt_io_redirect.c
0001efb0 l     F .text	000000c4 alt_open_fd
00000000 l    df *ABS*	00000000 alt_tick.c
00000000 l    df *ABS*	00000000 alt_usleep.c
00000000 l    df *ABS*	00000000 altera_nios2_qsys_irq.c
00000000 l    df *ABS*	00000000 altera_avalon_cfi_flash_amd.c
0001f67c l     F .text	000000cc alt_write_word_amd
0001f560 l     F .text	0000011c alt_wait_for_command_to_complete_amd
00000000 l    df *ABS*	00000000 altera_avalon_cfi_flash_intel.c
0001f954 l     F .text	0000017c alt_unlock_block_intel
0001fad0 l     F .text	000000d4 alt_write_word_intel
00000000 l    df *ABS*	00000000 alt_busy_sleep.c
00000000 l    df *ABS*	00000000 atexit.c
00000000 l    df *ABS*	00000000 ctype_.c
08000aaa l     O .rodata	00000180 _ctype_b
00000000 l    df *ABS*	00000000 exit.c
00000000 l    df *ABS*	00000000 strcpy.c
00000000 l    df *ABS*	00000000 __atexit.c
00000000 l    df *ABS*	00000000 __call_atexit.c
00000000 l    df *ABS*	00000000 alt_exit.c
08002db4 g     O .bss	00000004 responseTimeFlag
000138e8 g     F .text	00000074 _mprec_log10
000139d4 g     F .text	0000008c __any_on
00012694 g     F .text	00000054 _isatty_r
08000530 g     O .rodata	00000028 __mprec_tinytens
00018120 g     F .text	0000007c alt_main
0001fd18 g     F .text	00000090 strcpy
0001ddb8 g     F .text	0000024c alt_up_pixel_buffer_dma_draw_vline
0000bc44 g     F .text	000000c0 _puts_r
0001948c g     F .text	00000040 alt_read_query_entry_32bit
0001cda0 g     F .text	00000060 alt_up_ps2_disable_read_interrupt
080800c8 g     O .bss	00000100 alt_irq
000127c4 g     F .text	00000060 _lseek_r
000000c4 g       .exceptions	00000000 restore_sp_from_pxCurrentTCB
000056a4 g     F .text	00000080 vTaskPlaceOnUnorderedEventList
000033c0 g     F .text	00000020 xPortGetFreeHeapSize
00018c3c g     F .text	000002a8 alt_flash_cfi_write
00002ea8 g     F .text	0000003c xEventGroupGetBitsFromISR
0001212c g     F .text	000000ac __sflags
00017c84 g     F .text	00000088 .hidden __eqdf2
08002dd4 g     O .bss	00000004 xHandle
080801c8 g       *ABS*	00000000 __alt_heap_start
00006a64 g     F .text	000000ac xTimerCreate
0000bc08 g     F .text	0000003c printf
08002dd8 g     O .bss	00000004 semTimer
00016fec g     F .text	0000009c _wcrtomb_r
0000c0f8 g     F .text	0000005c __sseek
0000a184 g     F .text	00000010 __sinit
00016e94 g     F .text	00000140 __swbuf_r
0001d38c g     F .text	000000fc alt_up_char_buffer_string
0001cbb8 g     F .text	00000034 read_CE_bit
00004cd0 g     F .text	00000098 vQueueWaitForMessageRestricted
08002ddc g     O .bss	00000004 lcd
000126e8 g     F .text	0000007c _setlocale_r
00009fec g     F .text	00000068 __sfmoreglue
000181c0 g     F .text	00000024 __malloc_unlock
00001138 g     F .text	000000b0 vISRKeyboard
0001cf40 g     F .text	0000009c alt_up_ps2_read_data_byte_timeout
0001d2c0 g     F .text	000000cc alt_up_char_buffer_draw
00002b28 g     F .text	0000017c xEventGroupSync
00012908 g     F .text	0000015c memmove
00002a4c g     F .text	00000088 xCoRoutineRemoveFromEventList
08002a6c g     O .rwdata	00000198 key_table
00006298 g     F .text	00000054 vTaskEnterCritical
0000a16c g     F .text	00000018 _cleanup
0000426c g     F .text	000000e0 xQueueGenericSendFromISR
00012a64 g     F .text	000000a8 _Balloc
08002de0 g     O .bss	00000004 Q_keyboard
0001d520 g     F .text	00000194 alt_up_pixel_buffer_dma_draw
00008488 g     F .text	000000dc .hidden __gtdf2
00019624 g     F .text	00000050 alt_write_flash_command_32bit_device_16bit_mode
0001d4e4 g     F .text	0000003c alt_up_pixel_buffer_dma_open_dev
01000000 g     F .entry	00000000 __reset
00003f3c g     F .text	00000090 xQueueGiveMutexRecursive
08002e44 g     O .bss	00000004 pxCurrentTCB
0001e398 g     F .text	00000070 get_multi_byte_make_code_index
0000abe0 g     F .text	0000005c _fstat_r
08002db0 g     O .bss	00000004 endTime
00019130 g     F .text	000002e0 alt_flash_program_block
08002e88 g     O .bss	00000004 errno
0000c074 g     F .text	00000008 __seofread
00014344 g     F .text	0000123c ___svfiprintf_internal_r
0001e780 g     F .text	00000064 set_keyboard_rate
08002eac g     O .bss	00000004 alt_argv
0000659c g     F .text	00000188 xTaskNotify
0800ad36 g       *ABS*	00000000 _gp
0001f294 g     F .text	00000030 usleep
000015c8 g     F .text	00000094 vISRFreqRelay
0001d6b4 g     F .text	0000005c alt_up_pixel_buffer_dma_change_back_buffer_address
08002de4 g     O .bss	00000004 QAddedShed
00002ca4 g     F .text	0000019c xEventGroupWaitBits
0001e8fc g     F .text	00000078 reset_keyboard
08002de8 g     O .bss	00000004 QBtn
080014f8 g     O .rwdata	00000180 alt_fd_list
000011e8 g     F .text	00000148 vTaskLCDMode
000039d0 g     F .text	00000038 xPortStartScheduler
00005114 g     F .text	00000048 vTaskEndScheduler
0001ecb8 g     F .text	00000090 alt_find_dev
0000b908 g     F .text	00000148 memcpy
00005638 g     F .text	0000006c vTaskPlaceOnEventList
00004d68 g     F .text	000001c4 xTaskGenericCreate
000020b4 g     F .text	00000048 vTimer500_Callback
0001d488 g     F .text	0000005c alt_up_char_buffer_clear
08002dec g     O .bss	00000004 QAddedLoad
00009e3c g     F .text	0000000c _cleanup_r
000096ec g     F .text	000000dc .hidden __floatsidf
0001f074 g     F .text	0000007c alt_io_redirect
00008564 g     F .text	000000f4 .hidden __ltdf2
00004704 g     F .text	0000007c xQueuePeekFromISR
00020074 g       *ABS*	00000000 __DTOR_END__
0000bd04 g     F .text	00000014 puts
00003340 g     F .text	00000080 vPortFree
0000165c g     F .text	0000004c vTaskSwitchCon
00014024 g     F .text	00000074 __fpclassifyd
0000248c g     F .text	00000144 xCoRoutineCreate
00013844 g     F .text	000000a4 __ratio
01000000 g       *ABS*	00000000 __alt_mem_flash_controller
00016af0 g     F .text	0000001c __vfiprintf_internal
0001d770 g     F .text	00000034 alt_up_pixel_buffer_dma_check_swap_buffers_status
08002df0 g     O .bss	00000004 QNetworkStat
0001ae78 g     F .text	0000021c altera_avalon_jtag_uart_read
0000bbd8 g     F .text	00000030 _printf_r
000099cc g     F .text	00000064 .hidden __udivsi3
00017f6c g     F .text	000000a4 isatty
08000580 g     O .rodata	000000c8 __mprec_tens
00005ef4 g     F .text	00000060 uxTaskGetStackHighWaterMark
0001dba8 g     F .text	00000210 alt_up_pixel_buffer_dma_draw_hline
00012764 g     F .text	0000000c __locale_charset
00003688 g     F .text	0000008c vListInsertEnd
08002e94 g     O .bss	00000004 __malloc_top_pad
00002ad4 g     F .text	00000054 xEventGroupCreate
08002d6c g     O .rwdata	00000004 __mb_cur_max
00012794 g     F .text	0000000c _localeconv_r
08002df4 g     O .bss	00000004 QSwitch
00012e70 g     F .text	0000003c __i2b
000121d8 g     F .text	000004bc __sfvwrite_r
0000bf08 g     F .text	00000054 _sbrk_r
0001f748 g     F .text	00000080 alt_program_intel
0001e0cc g     F .text	00000084 helper_plot_pixel
000030d8 g     F .text	0000003c vEventGroupSetBitsCallback
000010b4 g     F .text	00000084 vISRButtonMode
00013a60 g     F .text	00000060 _read_r
0000365c g     F .text	0000002c vListInitialiseItem
0001eaa0 g     F .text	00000078 alt_dcache_flush
08002d84 g     O .rwdata	00000004 alt_max_fd
00019410 g     F .text	0000003c alt_read_query_entry_8bit
00003ac4 g     F .text	0000004c vPortSysTickHandler
00009a88 g     F .text	000000f0 _fclose_r
0001cbec g     F .text	00000030 read_num_bytes_available
0001f7c8 g     F .text	0000018c alt_erase_block_intel
00009e04 g     F .text	00000030 fflush
08002c04 g     O .rwdata	00000066 ascii_codes
08002e90 g     O .bss	00000004 __malloc_max_sbrked_mem
00003b10 g     F .text	00000170 alt_irq_register
0001cb54 g     F .text	00000034 read_RI_bit
000072f4 g     F .text	000008ac .hidden __adddf3
000135ec g     F .text	0000010c __b2d
0001d7a4 g     F .text	00000128 alt_up_pixel_buffer_dma_clear_screen
0001774c g     F .text	00000538 .hidden __umoddi3
0001804c g     F .text	000000d4 lseek
08002d5c g     O .rwdata	00000004 _global_impure_ptr
00002ee4 g     F .text	00000180 xEventGroupSetBits
00013ac0 g     F .text	00000564 _realloc_r
080801c8 g       *ABS*	00000000 __bss_end
0001d8cc g     F .text	000002dc alt_up_pixel_buffer_dma_draw_box
0001f18c g     F .text	00000108 alt_tick
000171d4 g     F .text	00000578 .hidden __udivdi3
00016df0 g     F .text	00000024 _fputwc_r
08000558 g     O .rodata	00000028 __mprec_bigtens
00012c54 g     F .text	00000104 __s2b
000097c8 g     F .text	000000a8 .hidden __floatunsidf
0001332c g     F .text	00000060 __mcmp
000031c0 g     F .text	00000180 pvPortMalloc
0001c390 g     F .text	000000a4 altera_avalon_uart_init
08002df8 g     O .bss	00000004 QAddLoad
0001cc50 g     F .text	0000002c read_data_byte
0000a1a4 g     F .text	00000018 __fp_lock_all
00004844 g     F .text	0000003c vQueueDelete
00003a08 g     F .text	00000020 vPortEndScheduler
000035f4 g     F .text	00000068 vListInitialise
0001f0f0 g     F .text	0000009c alt_alarm_stop
0001cb88 g     F .text	00000030 read_RE_bit
08002ea4 g     O .bss	00000004 alt_irq_active
0000a780 g     F .text	00000444 _fseeko_r
0000017c g     F .exceptions	000000d8 alt_irq_handler
080014d0 g     O .rwdata	00000028 alt_dev_null
000052cc g     F .text	00000028 xTaskGetTickCount
000040cc g     F .text	000001a0 xQueueGenericSend
00001d94 g     F .text	00000190 vTaskShed
08002dfc g     O .bss	00000004 semRoc
0001992c g     F .text	0000009c alt_set_flash_algorithm_func
08002e00 g     O .bss	00000004 QStability
0001ce00 g     F .text	00000074 alt_up_ps2_write_data_byte
08002dc0 g     O .bss	00000004 sumTime
00012d58 g     F .text	00000068 __hi0bits
0001e004 g     F .text	000000c8 alt_up_pixel_buffer_dma_draw_rectangle
0000966c g     F .text	00000080 .hidden __fixdfsi
0000619c g     F .text	000000fc xTaskPriorityDisinherit
000194cc g     F .text	00000044 alt_write_flash_command_8bit_device_8bit_mode
08002cd0 g     O .rwdata	00000066 multi_byte_make_code
00000000 g       *ABS*	00000000 __alt_mem_onchip_memory
08002d7c g     O .rwdata	00000008 alt_dev_list
000186c0 g     F .text	000000f8 write
0001e150 g     F .text	00000248 alt_up_pixel_buffer_dma_draw_line
00005790 g     F .text	000000f4 xTaskRemoveFromEventList
00017e80 g     F .text	000000b0 fstat
0000a308 g     F .text	00000024 fprintf
00002e40 g     F .text	00000068 xEventGroupClearBits
00008564 g     F .text	000000f4 .hidden __ledf2
0001a780 g     F .text	000000d8 alt_check_primary_table
000130a4 g     F .text	00000140 __pow5mult
00015694 g     F .text	0000145c ___vfiprintf_internal_r
08002ea0 g     O .bss	00000004 __nlocale_changed
00009a30 g     F .text	00000058 .hidden __umodsi3
00018f70 g     F .text	00000064 alt_flash_cfi_read
000196c4 g     F .text	00000038 alt_write_native_8bit
080801c8 g       *ABS*	00000000 end
0001d130 g     F .text	00000098 alt_up_ps2_write_fd
00019510 g     F .text	00000078 alt_write_flash_command_16bit_device_8bit_mode
0001ba80 g     F .text	000004d4 altera_avalon_lcd_16207_write
00004f2c g     F .text	000000d0 vTaskDelete
0000abc4 g     F .text	0000001c fseeko
0001d204 g     F .text	00000080 alt_up_char_buffer_init
0001c9a8 g     F .text	000001ac altera_avalon_uart_write
0000a764 g     F .text	0000001c fseek
00019a48 g     F .text	000005c8 alt_read_cfi_table
0001a9bc g     F .text	000000b4 altera_avalon_jtag_uart_init
00006390 g     F .text	00000038 pvTaskIncrementMutexHeldCount
08002dcc g     O .bss	00000004 iTimerFlag
00020074 g       *ABS*	00000000 __CTOR_LIST__
10000000 g       *ABS*	00000000 __alt_stack_pointer
00001f24 g     F .text	00000190 vTaskAdd
0001c20c g     F .text	00000074 alt_avalon_timer_sc_init
0001c2e0 g     F .text	00000060 altera_avalon_uart_write_fd
00009870 g     F .text	00000064 .hidden __clzsi2
0001c340 g     F .text	00000050 altera_avalon_uart_close_fd
0001b094 g     F .text	00000224 altera_avalon_jtag_uart_write
00018bac g     F .text	00000090 alt_flash_cfi_init
0000a194 g     F .text	00000004 __sfp_lock_acquire
00012824 g     F .text	000000e4 memchr
0000e3cc g     F .text	000021f8 ___vfprintf_internal_r
0000bf5c g     F .text	00000058 _sprintf_r
00005998 g     F .text	000000c4 xTaskCheckForTimeOut
000028c0 g     F .text	000000ec vCoRoutineSchedule
0000a450 g     F .text	00000310 _free_r
00012770 g     F .text	00000010 __locale_mb_cur_max
08002e24 g     O .bss	00000004 pxCurrentCoRoutine
0001fec0 g     F .text	00000180 __call_exitprocs
0001e7e4 g     F .text	00000118 translate_make_code
08002e9c g     O .bss	00000004 __mlocale_changed
000063c8 g     F .text	000000cc ulTaskNotifyTake
08002d64 g     O .rwdata	00000004 __malloc_sbrk_base
00000254 g     F .text	00000048 _start
08002eb8 g     O .bss	00000004 _alt_tick_rate
0000515c g     F .text	0000002c vTaskSuspendAll
000052f4 g     F .text	0000002c xTaskGetTickCountFromISR
000131e4 g     F .text	00000148 __lshift
08002ebc g     O .bss	00000004 _alt_nticks
00018474 g     F .text	000000fc read
00018824 g     F .text	00000354 alt_sys_init
00014174 g     F .text	000001d0 __ssprint_r
000037ec g     F .text	00000098 uxListRemove
0000bb78 g     F .text	00000060 _open_r
0001fda8 g     F .text	00000118 __register_exitproc
0001d04c g     F .text	00000058 alt_up_ps2_clear_fifo
0001944c g     F .text	00000040 alt_read_query_entry_16bit
00012eac g     F .text	000001f8 __multiply
0001ad20 g     F .text	00000068 altera_avalon_jtag_uart_close
00006074 g     F .text	00000128 vTaskPriorityInherit
00001330 g     F .text	00000298 vTaskKeyboardHandler
080800a0 g     O .bss	00000028 __malloc_current_mallinfo
00019768 g     F .text	000001c4 alt_set_flash_width_func
000136f8 g     F .text	0000014c __d2b
00005504 g     F .text	00000134 vTaskSwitchContext
00006724 g     F .text	000001bc xTaskNotifyFromISR
0001a858 g     F .text	00000060 altera_avalon_jtag_uart_read_fd
0001ef0c g     F .text	000000a4 alt_get_fd
00005724 g     F .text	0000006c vTaskPlaceOnEventListRestricted
0001fba4 g     F .text	00000128 alt_busy_sleep
00010850 g     F .text	00000054 _close_r
00006494 g     F .text	00000108 xTaskNotifyWait
0001f350 g     F .text	00000210 alt_erase_block_amd
0001e6c4 g     F .text	000000bc decode_scancode
0000b88c g     F .text	0000007c memcmp
0001a918 g     F .text	00000050 altera_avalon_jtag_uart_close_fd
080801c8 g       *ABS*	00000000 __alt_stack_base
0001a968 g     F .text	00000054 altera_avalon_jtag_uart_ioctl_fd
08002e04 g     O .bss	00000004 PRVGADraw
0000adc4 g     F .text	000000cc _fwrite_r
00006b10 g     F .text	000000dc xTimerGenericCommand
000106fc g     F .text	00000154 __swsetup_r
0001a010 g     F .text	00000770 alt_read_cfi_width
00003884 g     F .text	00000040 vApplicationStackOverflowHook
00007ba0 g     F .text	000008e8 .hidden __divdf3
0000a054 g     F .text	00000118 __sfp
0001395c g     F .text	00000078 __copybits
00005320 g     F .text	00000020 uxTaskGetNumberOfTasks
08001050 g     O .rwdata	00000408 __malloc_av_
0000a1a0 g     F .text	00000004 __sinit_lock_release
00008658 g     F .text	00000718 .hidden __muldf3
0000c020 g     F .text	00000054 __sread
0001ed48 g     F .text	00000108 alt_find_file
0001eb54 g     F .text	000000a4 alt_dev_llist_insert
0001819c g     F .text	00000024 __malloc_lock
0000a2e0 g     F .text	00000028 _fprintf_r
000185d4 g     F .text	000000b0 sbrk
0000c1f4 g     F .text	000021d8 ___svfprintf_internal_r
00003fcc g     F .text	000000a8 xQueueTakeMutexRecursive
00009da8 g     F .text	0000005c _fflush_r
00003064 g     F .text	00000074 vEventGroupDelete
00016bc8 g     F .text	000000c4 _calloc_r
08002d98 g     O .rwdata	00000008 alt_flash_dev_list
000195d8 g     F .text	0000004c alt_write_flash_command_16bit_device_16bit_mode
0000a2c8 g     F .text	00000018 fopen
08002dac g       *ABS*	00000000 __bss_start
0000ba50 g     F .text	00000128 memset
000020fc g     F .text	000000fc main
0001e408 g     F .text	00000070 get_single_byte_make_code_index
08002eb0 g     O .bss	00000004 alt_envp
08002e08 g     O .bss	00000004 QShedLoad
08002e8c g     O .bss	00000004 __malloc_max_total_mem
0001d710 g     F .text	00000060 alt_up_pixel_buffer_dma_swap_buffers
0001d284 g     F .text	0000003c alt_up_char_buffer_open_dev
0001a8b8 g     F .text	00000060 altera_avalon_jtag_uart_write_fd
00016fd4 g     F .text	00000018 __swbuf
00002314 g     F .text	00000178 initCreateTasks
00003714 g     F .text	000000d8 vListInsert
0001c000 g     F .text	00000130 altera_avalon_lcd_16207_init
0000c154 g     F .text	00000008 __sclose
10000000 g       *ABS*	00000000 __alt_heap_limit
08002e0c g     O .bss	00000004 semAdd
00009b78 g     F .text	00000014 fclose
000069f8 g     F .text	0000006c xTimerCreateTimerTask
0001cfdc g     F .text	00000070 alt_up_ps2_read_data_byte
00010aa4 g     F .text	00001688 _dtoa_r
0000b080 g     F .text	0000080c _malloc_r
00017148 g     F .text	00000030 __ascii_wctomb
00006bec g     F .text	00000030 pcTimerGetTimerName
08002d88 g     O .rwdata	00000004 alt_errno
00019674 g     F .text	00000050 alt_write_flash_command_32bit_device_32bit_mode
0000ac3c g     F .text	000000c4 _fwalk
0000462c g     F .text	000000d8 xQueueReceiveFromISR
00018fd4 g     F .text	0000015c alt_write_value_to_flash
00006000 g     F .text	00000028 xTaskGetCurrentTaskHandle
0001d1c8 g     F .text	0000003c alt_up_ps2_open_dev
000196fc g     F .text	00000038 alt_write_native_16bit
000098d4 g     F .text	00000084 .hidden __divsi3
00003d98 g     F .text	000000d8 xQueueGenericCreate
0000a32c g     F .text	00000124 _malloc_trim_r
0001cd44 g     F .text	0000005c alt_up_ps2_enable_read_interrupt
00020074 g       *ABS*	00000000 __CTOR_END__
00014098 g     F .text	000000dc strcmp
00004074 g     F .text	00000058 xQueueCreateCountingSemaphore
00020074 g       *ABS*	00000000 __DTOR_LIST__
08002dd0 g     O .bss	00000004 iTimerFin
08002dc4 g     O .bss	00000004 count
00017c84 g     F .text	00000088 .hidden __nedf2
000187ec g     F .text	00000038 alt_irq_init
00005884 g     F .text	000000d8 xTaskRemoveFromUnorderedEventList
00018570 g     F .text	00000064 alt_release_fd
00005188 g     F .text	00000144 xTaskResumeAll
000047c0 g     F .text	00000054 uxQueueSpacesAvailable
0001cc1c g     F .text	00000034 read_data_valid
0000bfb4 g     F .text	0000006c sprintf
0800037c g     O .rodata	00000100 .hidden __clz_tab
00005074 g     F .text	000000a0 vTaskStartScheduler
08002e98 g     O .bss	00000004 _PathLocale
0001cedc g     F .text	00000064 alt_up_ps2_write_data_byte_with_ack
0001fccc g     F .text	00000014 atexit
0001069c g     F .text	00000060 _write_r
000127a0 g     F .text	00000018 setlocale
00004c88 g     F .text	00000048 xQueueIsQueueFullFromISR
08002dbc g     O .bss	00000004 avgTime
08002dc8 g     O .bss	00000004 iMode
000072c4 g     F .text	00000030 pvTimerGetTimerID
000025d0 g     F .text	000000b8 vCoRoutineAddToDelayedList
08002d60 g     O .rwdata	00000004 _impure_ptr
08002ea8 g     O .bss	00000004 alt_argc
00009b8c g     F .text	0000021c __sflush_r
0001ec58 g     F .text	00000060 _do_dtors
08002e10 g     O .bss	00000004 timer500
0001278c g     F .text	00000008 __locale_cjk_lang
0000a760 g     F .text	00000004 _fseek_r
08002db8 g     O .bss	00000004 maxTime
0000bd34 g     F .text	000001d4 __srefill_r
00013588 g     F .text	00000064 __ulp
0000a1bc g     F .text	00000018 __fp_unlock_all
00005a5c g     F .text	00000028 vTaskMissedYield
0001c130 g     F .text	00000060 altera_avalon_lcd_16207_write_fd
08002d74 g     O .rwdata	00000008 alt_fs_list
00019588 g     F .text	00000050 alt_write_flash_command_32bit_device_8bit_mode
0000441c g     F .text	00000210 xQueueGenericReceive
00004780 g     F .text	00000040 uxQueueMessagesWaiting
0000029c g     F .text	00000e18 PRVGADraw_Task
00005340 g     F .text	000001c4 xTaskIncrementTick
08002e14 g     O .bss	00000004 QFreqDataVGA
000127b8 g     F .text	0000000c localeconv
0000ae90 g     F .text	00000034 fwrite
00003c80 g     F .text	00000118 xQueueGenericReset
08002dac g       *ABS*	00000000 _edata
0001c280 g     F .text	00000060 altera_avalon_uart_read_fd
080801c8 g       *ABS*	00000000 _end
0001ee50 g     F .text	00000068 alt_flash_open_dev
08002e18 g     O .bss	00000004 QFreqData
00016c8c g     F .text	00000164 __fputwc
0001ad88 g     F .text	000000f0 altera_avalon_jtag_uart_ioctl
000033e0 g     F .text	00000020 vPortInitialiseBlocks
00007274 g     F .text	00000050 xTimerIsTimerActive
0000c07c g     F .text	0000007c __swrite
08002d68 g     O .rwdata	00000004 __malloc_trim_threshold
000016a8 g     F .text	000006ec vTaskLoadManager
0001f2c4 g     F .text	00000024 altera_nios2_qsys_irq_init
00012780 g     F .text	0000000c __locale_msgcharset
0001fce0 g     F .text	00000038 exit
0000ad00 g     F .text	000000c4 _fwalk_reent
0001cc7c g     F .text	000000c8 alt_up_ps2_init
0001338c g     F .text	000001fc __mdiff
0001eeb8 g     F .text	00000054 alt_flash_close_dev
00009958 g     F .text	00000074 .hidden __modsi3
08002da8 g     O .rwdata	00000004 __ctype_ptr__
00004ffc g     F .text	00000078 vTaskDelay
10000000 g       *ABS*	00000000 __alt_data_end
0000a198 g     F .text	00000004 __sfp_lock_release
08000000 g       *ABS*	00000000 __alt_mem_sdram
00006028 g     F .text	0000004c xTaskGetSchedulerState
080009a9 g     O .rodata	00000101 _ctype_
0001c700 g     F .text	00000054 altera_avalon_uart_close
0000a1d4 g     F .text	000000f4 _fopen_r
00020040 g     F .text	00000034 _exit
0001e974 g     F .text	0000012c alt_alarm_start
0001e478 g     F .text	0000024c get_next_state
0000aec4 g     F .text	000001bc __smakebuf_r
00019734 g     F .text	00000034 alt_write_native_32bit
0001ce74 g     F .text	00000068 alt_up_ps2_wait_for_ack
000062ec g     F .text	00000060 vTaskExitCritical
0000c15c g     F .text	00000098 strlen
000038f0 g     F .text	000000e0 pxPortInitialiseStack
000182e4 g     F .text	00000154 open
00008488 g     F .text	000000dc .hidden __gedf2
08002d38 g     O .rwdata	00000004 minTime
00018ee4 g     F .text	0000008c alt_flash_cfi_get_info
08002d70 g     O .rwdata	00000004 __wctomb
0001567c g     F .text	00000018 __sprint_r
0000595c g     F .text	0000003c vTaskSetTimeOutState
08002d8c g     O .rwdata	00000004 alt_priority_mask
000105c4 g     F .text	0000001c __vfprintf_internal
08002dac g     O .bss	00000004 startTime
0001c790 g     F .text	000001dc altera_avalon_uart_read
00017178 g     F .text	0000005c _wctomb_r
00004814 g     F .text	00000030 uxQueueMessagesWaitingFromISR
00004bf0 g     F .text	00000040 xQueueIsQueueEmptyFromISR
0001d0a4 g     F .text	0000008c alt_up_ps2_read_fd
00008d70 g     F .text	000008fc .hidden __subdf3
000021f8 g     F .text	0000011c initOSDataStructs
08002c6a g     O .rwdata	00000066 single_byte_make_code
00012dc0 g     F .text	000000b0 __lo0bits
08002da0 g     O .rwdata	00000008 alt_alarm_list
0001ebf8 g     F .text	00000060 _do_ctors
0000634c g     F .text	00000044 uxTaskResetEventItemValue
00017088 g     F .text	000000c0 wcrtomb
00003e70 g     F .text	000000cc xQueueCreateMutex
00017d48 g     F .text	000000d0 close
0001f2e8 g     F .text	00000068 alt_program_amd
000068e0 g     F .text	00000118 vTaskNotifyGiveFromISR
08002ec0 g     O .bss	00000014 topFiveRecords
00003114 g     F .text	0000003c vEventGroupClearBitsCallback
0000434c g     F .text	000000d0 xQueueGiveFromISR
00016e14 g     F .text	00000080 fputwc
0000a19c g     F .text	00000004 __sinit_lock_acquire
00012b34 g     F .text	00000120 __multadd
00012b0c g     F .text	00000028 _Bfree



Disassembly of section .exceptions:

00000020 <save_context>:
# Entry point for exceptions.
.section .exceptions.entry, "xa"		

# Save the entire context of a task.
save_context:
	addi	ea, ea, -4			# Point to the next instruction.
  20:	ef7fff04 	addi	ea,ea,-4
	addi	sp,	sp, -116		# Create space on the stack.
  24:	deffe304 	addi	sp,sp,-116
	stw		ra, 0(sp)
  28:	dfc00015 	stw	ra,0(sp)
								# Leave a gap for muldiv 0
	stw		at, 8(sp)		 
  2c:	d8400215 	stw	at,8(sp)
	stw		r2, 12(sp)
  30:	d8800315 	stw	r2,12(sp)
	stw		r3, 16(sp)
  34:	d8c00415 	stw	r3,16(sp)
	stw		r4, 20(sp)
  38:	d9000515 	stw	r4,20(sp)
	stw		r5, 24(sp) 
  3c:	d9400615 	stw	r5,24(sp)
	stw		r6, 28(sp) 
  40:	d9800715 	stw	r6,28(sp)
	stw		r7, 32(sp) 
  44:	d9c00815 	stw	r7,32(sp)
	stw		r8, 36(sp) 
  48:	da000915 	stw	r8,36(sp)
	stw		r9, 40(sp) 
  4c:	da400a15 	stw	r9,40(sp)
	stw		r10, 44(sp)
  50:	da800b15 	stw	r10,44(sp)
	stw		r11, 48(sp)
  54:	dac00c15 	stw	r11,48(sp)
	stw		r12, 52(sp)
  58:	db000d15 	stw	r12,52(sp)
	stw		r13, 56(sp)
  5c:	db400e15 	stw	r13,56(sp)
	stw		r14, 60(sp)
  60:	db800f15 	stw	r14,60(sp)
	stw		r15, 64(sp)
  64:	dbc01015 	stw	r15,64(sp)
	rdctl	r5, estatus 		# Save the eStatus
  68:	000b307a 	rdctl	r5,estatus
	stw		r5, 68(sp)
  6c:	d9401115 	stw	r5,68(sp)
	stw		ea, 72(sp)			# Save the PC
  70:	df401215 	stw	ea,72(sp)
	stw		r16, 76(sp)			# Save the remaining registers
  74:	dc001315 	stw	r16,76(sp)
	stw		r17, 80(sp)
  78:	dc401415 	stw	r17,80(sp)
	stw		r18, 84(sp)
  7c:	dc801515 	stw	r18,84(sp)
	stw		r19, 88(sp)
  80:	dcc01615 	stw	r19,88(sp)
	stw		r20, 92(sp)
  84:	dd001715 	stw	r20,92(sp)
	stw		r21, 96(sp)
  88:	dd401815 	stw	r21,96(sp)
	stw		r22, 100(sp)
  8c:	dd801915 	stw	r22,100(sp)
	stw		r23, 104(sp)
  90:	ddc01a15 	stw	r23,104(sp)
	stw		gp, 108(sp)
  94:	de801b15 	stw	gp,108(sp)
	stw		fp, 112(sp)
  98:	df001c15 	stw	fp,112(sp)

0000009c <save_sp_to_pxCurrentTCB>:
  9c:	06020034 	movhi	et,2048

save_sp_to_pxCurrentTCB:
	movia	et, pxCurrentTCB	# Load the address of the pxCurrentTCB pointer
  a0:	c60b9104 	addi	et,et,11844
	ldw		et, (et)			# Load the value of the pxCurrentTCB pointer
  a4:	c6000017 	ldw	et,0(et)
	stw		sp, (et)			# Store the stack pointer into the top of the TCB
  a8:	c6c00015 	stw	sp,0(et)

000000ac <hw_irq_test>:
hw_irq_test:
	/*
     * Test to see if the exception was a software exception or caused 
     * by an external interrupt, and vector accordingly.
     */
    rdctl	r4, ipending		# Load the Pending Interrupts indication
  ac:	0009313a 	rdctl	r4,ipending
	rdctl	r5, estatus 		# Load the eStatus (enabled interrupts).
  b0:	000b307a 	rdctl	r5,estatus
    andi	r2, r5, 1			# Are interrupts enabled globally.
  b4:	2880004c 	andi	r2,r5,1
    beq		r2, zero, soft_exceptions		# Interrupts are not enabled.
  b8:	10002526 	beq	r2,zero,150 <soft_exceptions>
    beq		r4, zero, soft_exceptions		# There are no interrupts triggered.
  bc:	20002426 	beq	r4,zero,150 <soft_exceptions>

000000c0 <hw_irq_handler>:

	.section .exceptions.irqhandler, "xa"
hw_irq_handler:
	call	alt_irq_handler					# Call the alt_irq_handler to deliver to the registered interrupt handler.
  c0:	000017c0 	call	17c <alt_irq_handler>

000000c4 <restore_sp_from_pxCurrentTCB>:
  c4:	06020034 	movhi	et,2048

    .section .exceptions.irqreturn, "xa"
restore_sp_from_pxCurrentTCB:
	movia	et, pxCurrentTCB		# Load the address of the pxCurrentTCB pointer
  c8:	c60b9104 	addi	et,et,11844
	ldw		et, (et)				# Load the value of the pxCurrentTCB pointer
  cc:	c6000017 	ldw	et,0(et)
	ldw		sp, (et)				# Load the stack pointer with the top value of the TCB
  d0:	c6c00017 	ldw	sp,0(et)

000000d4 <restore_context>:

restore_context:
	ldw		ra, 0(sp)		# Restore the registers.
  d4:	dfc00017 	ldw	ra,0(sp)
							# Leave a gap for muldiv 0.
	ldw		at, 8(sp)
  d8:	d8400217 	ldw	at,8(sp)
	ldw		r2, 12(sp)
  dc:	d8800317 	ldw	r2,12(sp)
	ldw		r3, 16(sp)
  e0:	d8c00417 	ldw	r3,16(sp)
	ldw		r4, 20(sp)
  e4:	d9000517 	ldw	r4,20(sp)
	ldw		r5, 24(sp) 
  e8:	d9400617 	ldw	r5,24(sp)
	ldw		r6, 28(sp) 
  ec:	d9800717 	ldw	r6,28(sp)
	ldw		r7, 32(sp) 
  f0:	d9c00817 	ldw	r7,32(sp)
	ldw		r8, 36(sp) 
  f4:	da000917 	ldw	r8,36(sp)
	ldw		r9, 40(sp) 
  f8:	da400a17 	ldw	r9,40(sp)
	ldw		r10, 44(sp)
  fc:	da800b17 	ldw	r10,44(sp)
	ldw		r11, 48(sp)
 100:	dac00c17 	ldw	r11,48(sp)
	ldw		r12, 52(sp)
 104:	db000d17 	ldw	r12,52(sp)
	ldw		r13, 56(sp)
 108:	db400e17 	ldw	r13,56(sp)
	ldw		r14, 60(sp)
 10c:	db800f17 	ldw	r14,60(sp)
	ldw		r15, 64(sp)
 110:	dbc01017 	ldw	r15,64(sp)
	ldw		et, 68(sp)		# Load the eStatus
 114:	de001117 	ldw	et,68(sp)
	wrctl	estatus, et 	# Write the eStatus
 118:	c001707a 	wrctl	estatus,et
	ldw		ea, 72(sp)		# Load the Program Counter
 11c:	df401217 	ldw	ea,72(sp)
	ldw		r16, 76(sp)
 120:	dc001317 	ldw	r16,76(sp)
	ldw		r17, 80(sp)
 124:	dc401417 	ldw	r17,80(sp)
	ldw		r18, 84(sp)
 128:	dc801517 	ldw	r18,84(sp)
	ldw		r19, 88(sp)
 12c:	dcc01617 	ldw	r19,88(sp)
	ldw		r20, 92(sp)
 130:	dd001717 	ldw	r20,92(sp)
	ldw		r21, 96(sp)
 134:	dd401817 	ldw	r21,96(sp)
	ldw		r22, 100(sp)
 138:	dd801917 	ldw	r22,100(sp)
	ldw		r23, 104(sp)
 13c:	ddc01a17 	ldw	r23,104(sp)
	ldw		gp, 108(sp)
 140:	de801b17 	ldw	gp,108(sp)
	ldw		fp, 112(sp)
 144:	df001c17 	ldw	fp,112(sp)
	addi	sp,	sp, 116		# Release stack space
 148:	dec01d04 	addi	sp,sp,116

    eret					# Return to address ea, loading eStatus into Status.
 14c:	ef80083a 	eret

00000150 <soft_exceptions>:
   
	.section .exceptions.soft, "xa"
soft_exceptions:
	ldw		et, 0(ea)				# Load the instruction where the interrupt occured.
 150:	ee000017 	ldw	et,0(ea)
	movhi	at, %hi(0x003B683A)		# Load the registers with the trap instruction code
 154:	00400ef4 	movhi	at,59
	ori		at, at, %lo(0x003B683A)
 158:	085a0e94 	ori	at,at,26682
   	cmpne	et, et, at				# Compare the trap instruction code to the last excuted instruction
 15c:	c070c03a 	cmpne	et,et,at
  	beq		et, r0, call_scheduler	# its a trap so switchcontext
 160:	c0000226 	beq	et,zero,16c <call_scheduler>
  	break							# This is an un-implemented instruction or muldiv problem.
 164:	003da03a 	break	0
  	br		restore_context			# its something else
 168:	003fda06 	br	d4 <__alt_data_end+0xf00000d4>

0000016c <call_scheduler>:

call_scheduler:
	addi	ea, ea, 4						# A trap was called, increment the program counter so it is not called again.
 16c:	ef400104 	addi	ea,ea,4
	stw		ea, 72(sp)						# Save the new program counter to the context.
 170:	df401215 	stw	ea,72(sp)
	call	vTaskSwitchContext				# Pick the next context.
 174:	00055040 	call	5504 <vTaskSwitchContext>
	br		restore_sp_from_pxCurrentTCB	# Switch in the task context and restore. 
 178:	003fd206 	br	c4 <__alt_data_end+0xf00000c4>

0000017c <alt_irq_handler>:
 * instruction is present if the macro ALT_CI_INTERRUPT_VECTOR defined.
 */

void alt_irq_handler (void) __attribute__ ((section (".exceptions")));
void alt_irq_handler (void)
{
 17c:	defff904 	addi	sp,sp,-28
 180:	dfc00615 	stw	ra,24(sp)
 184:	df000515 	stw	fp,20(sp)
 188:	df000504 	addi	fp,sp,20
  
  /*
   * Notify the operating system that we are at interrupt level.
   */ 
  
  ALT_OS_INT_ENTER();
 18c:	0001883a 	nop
#ifndef NIOS2_EIC_PRESENT
static ALT_INLINE alt_u32 ALT_ALWAYS_INLINE alt_irq_pending (void)
{
  alt_u32 active;

  NIOS2_READ_IPENDING (active);
 190:	0005313a 	rdctl	r2,ipending
 194:	e0bffe15 	stw	r2,-8(fp)

  return active;
 198:	e0bffe17 	ldw	r2,-8(fp)
   * Consider the case where the high priority interupt is asserted during
   * the interrupt entry sequence for a lower priority interrupt to see why
   * this is the case.
   */

  active = alt_irq_pending ();
 19c:	e0bffb15 	stw	r2,-20(fp)

  do
  {
    i = 0;
 1a0:	e03ffd15 	stw	zero,-12(fp)
    mask = 1;
 1a4:	00800044 	movi	r2,1
 1a8:	e0bffc15 	stw	r2,-16(fp)
     * called to clear the interrupt condition.
     */

    do
    {
      if (active & mask)
 1ac:	e0fffb17 	ldw	r3,-20(fp)
 1b0:	e0bffc17 	ldw	r2,-16(fp)
 1b4:	1884703a 	and	r2,r3,r2
 1b8:	10001526 	beq	r2,zero,210 <alt_irq_handler+0x94>
      { 
#ifdef ALT_ENHANCED_INTERRUPT_API_PRESENT
        alt_irq[i].handler(alt_irq[i].context); 
#else
        alt_irq[i].handler(alt_irq[i].context, i); 
 1bc:	00820234 	movhi	r2,2056
 1c0:	10803204 	addi	r2,r2,200
 1c4:	e0fffd17 	ldw	r3,-12(fp)
 1c8:	180690fa 	slli	r3,r3,3
 1cc:	10c5883a 	add	r2,r2,r3
 1d0:	10c00017 	ldw	r3,0(r2)
 1d4:	00820234 	movhi	r2,2056
 1d8:	10803204 	addi	r2,r2,200
 1dc:	e13ffd17 	ldw	r4,-12(fp)
 1e0:	200890fa 	slli	r4,r4,3
 1e4:	1105883a 	add	r2,r2,r4
 1e8:	10800104 	addi	r2,r2,4
 1ec:	10800017 	ldw	r2,0(r2)
 1f0:	e17ffd17 	ldw	r5,-12(fp)
 1f4:	1009883a 	mov	r4,r2
 1f8:	183ee83a 	callr	r3
#endif
        break;
 1fc:	0001883a 	nop
#ifndef NIOS2_EIC_PRESENT
static ALT_INLINE alt_u32 ALT_ALWAYS_INLINE alt_irq_pending (void)
{
  alt_u32 active;

  NIOS2_READ_IPENDING (active);
 200:	0005313a 	rdctl	r2,ipending
 204:	e0bfff15 	stw	r2,-4(fp)

  return active;
 208:	e0bfff17 	ldw	r2,-4(fp)
 20c:	00000706 	br	22c <alt_irq_handler+0xb0>
      }
      mask <<= 1;
 210:	e0bffc17 	ldw	r2,-16(fp)
 214:	1085883a 	add	r2,r2,r2
 218:	e0bffc15 	stw	r2,-16(fp)
      i++;
 21c:	e0bffd17 	ldw	r2,-12(fp)
 220:	10800044 	addi	r2,r2,1
 224:	e0bffd15 	stw	r2,-12(fp)

    } while (1);
 228:	003fe006 	br	1ac <__alt_data_end+0xf00001ac>

    active = alt_irq_pending ();
 22c:	e0bffb15 	stw	r2,-20(fp)
    
  } while (active);
 230:	e0bffb17 	ldw	r2,-20(fp)
 234:	103fda1e 	bne	r2,zero,1a0 <__alt_data_end+0xf00001a0>

  /*
   * Notify the operating system that interrupt processing is complete.
   */ 

  ALT_OS_INT_EXIT();
 238:	0001883a 	nop
}
 23c:	0001883a 	nop
 240:	e037883a 	mov	sp,fp
 244:	dfc00117 	ldw	ra,4(sp)
 248:	df000017 	ldw	fp,0(sp)
 24c:	dec00204 	addi	sp,sp,8
 250:	f800283a 	ret

Disassembly of section .text:

00000254 <_start>:

    /* Assume the data cache size is always a power of two. */
#if NIOS2_DCACHE_SIZE > 0x8000
    movhi r2, %hi(NIOS2_DCACHE_SIZE)
#else
    movui r2, NIOS2_DCACHE_SIZE
     254:	00820014 	movui	r2,2048
#endif

0:
    initd 0(r2)
     258:	10000033 	initd	0(r2)
#ifdef NIOS2_ECC_PRESENT
    addi r2, r2, -4
#else
    addi r2, r2, -NIOS2_DCACHE_LINE_SIZE
     25c:	10bff804 	addi	r2,r2,-32
#endif
    bgt r2, zero, 0b
     260:	00bffd16 	blt	zero,r2,258 <__alt_data_end+0xf0000258>

    /*
     * Now that the caches are initialized, set up the stack pointer and global pointer.
     * The values provided by the linker are assumed to be correctly aligned.
     */
    movhi sp, %hi(__alt_stack_pointer)
     264:	06c40034 	movhi	sp,4096
    ori sp, sp, %lo(__alt_stack_pointer)
     268:	dec00014 	ori	sp,sp,0
    movhi gp, %hi(_gp)
     26c:	06820034 	movhi	gp,2048
    ori gp, gp, %lo(_gp)
     270:	d6ab4d94 	ori	gp,gp,44342
 */
#ifndef ALT_SIM_OPTIMIZE
    /* Log that the BSS is about to be cleared. */
    ALT_LOG_PUTS(alt_log_msg_bss)

    movhi r2, %hi(__bss_start)
     274:	00820034 	movhi	r2,2048
    ori r2, r2, %lo(__bss_start)
     278:	108b6b14 	ori	r2,r2,11692

    movhi r3, %hi(__bss_end)
     27c:	00c20234 	movhi	r3,2056
    ori r3, r3, %lo(__bss_end)
     280:	18c07214 	ori	r3,r3,456

    beq r2, r3, 1f
     284:	10c00326 	beq	r2,r3,294 <_start+0x40>

0:
    stw zero, (r2)
     288:	10000015 	stw	zero,0(r2)
    addi r2, r2, 4
     28c:	10800104 	addi	r2,r2,4
    bltu r2, r3, 0b
     290:	10fffd36 	bltu	r2,r3,288 <__alt_data_end+0xf0000288>

    /* Log that alt_main is about to be called. */
    ALT_LOG_PUTS(alt_log_msg_alt_main)

    /* Call the C entry point. It should never return. */
    call alt_main
     294:	00181200 	call	18120 <alt_main>

00000298 <alt_after_alt_main>:

    /* Wait in infinite loop in case alt_main does return. */
alt_after_alt_main:
    br alt_after_alt_main
     298:	003fff06 	br	298 <__alt_data_end+0xf0000298>

0000029c <PRVGADraw_Task>:
FILE *lcd;
#define ESC 27
#define CLEAR_LCD_STRING "[2J"

/* VGA Display */
void PRVGADraw_Task(void *pvParameters){
     29c:	defe3d04 	addi	sp,sp,-1804
     2a0:	dfc1c215 	stw	ra,1800(sp)
     2a4:	df01c115 	stw	fp,1796(sp)
     2a8:	dc41c015 	stw	r17,1792(sp)
     2ac:	dc01bf15 	stw	r16,1788(sp)
     2b0:	df01c104 	addi	fp,sp,1796
     2b4:	e13ffd15 	stw	r4,-12(fp)
	//initialize VGA controllers
	alt_up_pixel_buffer_dma_dev *pixel_buf;
	pixel_buf = alt_up_pixel_buffer_dma_open_dev(VIDEO_PIXEL_BUFFER_DMA_NAME);
     2b8:	01020034 	movhi	r4,2048
     2bc:	21000004 	addi	r4,r4,0
     2c0:	001d4e40 	call	1d4e4 <alt_up_pixel_buffer_dma_open_dev>
     2c4:	e0be4415 	stw	r2,-1776(fp)
	if(pixel_buf == NULL){
     2c8:	e0be4417 	ldw	r2,-1776(fp)
     2cc:	1000031e 	bne	r2,zero,2dc <PRVGADraw_Task+0x40>
		printf("can't find pixel buffer device\n");
     2d0:	01020034 	movhi	r4,2048
     2d4:	21000704 	addi	r4,r4,28
     2d8:	000bd040 	call	bd04 <puts>
	}
	alt_up_pixel_buffer_dma_clear_screen(pixel_buf, 0);
     2dc:	000b883a 	mov	r5,zero
     2e0:	e13e4417 	ldw	r4,-1776(fp)
     2e4:	001d7a40 	call	1d7a4 <alt_up_pixel_buffer_dma_clear_screen>

	alt_up_char_buffer_dev *char_buf;
	char_buf = alt_up_char_buffer_open_dev("/dev/video_character_buffer_with_dma");
     2e8:	01020034 	movhi	r4,2048
     2ec:	21000f04 	addi	r4,r4,60
     2f0:	001d2840 	call	1d284 <alt_up_char_buffer_open_dev>
     2f4:	e0be4515 	stw	r2,-1772(fp)
	if(char_buf == NULL){
     2f8:	e0be4517 	ldw	r2,-1772(fp)
     2fc:	1000031e 	bne	r2,zero,30c <PRVGADraw_Task+0x70>
		printf("can't find char buffer device\n");
     300:	01020034 	movhi	r4,2048
     304:	21001904 	addi	r4,r4,100
     308:	000bd040 	call	bd04 <puts>
	}
	alt_up_char_buffer_clear(char_buf);
     30c:	e13e4517 	ldw	r4,-1772(fp)
     310:	001d4880 	call	1d488 <alt_up_char_buffer_clear>

	//Set up plot axes
	alt_up_pixel_buffer_dma_draw_hline(pixel_buf, 100, 590, 200, ((0x3ff << 20) + (0x3ff << 10) + (0x3ff)), 0);
     314:	d8000115 	stw	zero,4(sp)
     318:	00900034 	movhi	r2,16384
     31c:	10bfffc4 	addi	r2,r2,-1
     320:	d8800015 	stw	r2,0(sp)
     324:	01c03204 	movi	r7,200
     328:	01809384 	movi	r6,590
     32c:	01401904 	movi	r5,100
     330:	e13e4417 	ldw	r4,-1776(fp)
     334:	001dba80 	call	1dba8 <alt_up_pixel_buffer_dma_draw_hline>
	alt_up_pixel_buffer_dma_draw_hline(pixel_buf, 100, 590, 300, ((0x3ff << 20) + (0x3ff << 10) + (0x3ff)), 0);
     338:	d8000115 	stw	zero,4(sp)
     33c:	00900034 	movhi	r2,16384
     340:	10bfffc4 	addi	r2,r2,-1
     344:	d8800015 	stw	r2,0(sp)
     348:	01c04b04 	movi	r7,300
     34c:	01809384 	movi	r6,590
     350:	01401904 	movi	r5,100
     354:	e13e4417 	ldw	r4,-1776(fp)
     358:	001dba80 	call	1dba8 <alt_up_pixel_buffer_dma_draw_hline>
	alt_up_pixel_buffer_dma_draw_vline(pixel_buf, 100, 50, 200, ((0x3ff << 20) + (0x3ff << 10) + (0x3ff)), 0);
     35c:	d8000115 	stw	zero,4(sp)
     360:	00900034 	movhi	r2,16384
     364:	10bfffc4 	addi	r2,r2,-1
     368:	d8800015 	stw	r2,0(sp)
     36c:	01c03204 	movi	r7,200
     370:	01800c84 	movi	r6,50
     374:	01401904 	movi	r5,100
     378:	e13e4417 	ldw	r4,-1776(fp)
     37c:	001ddb80 	call	1ddb8 <alt_up_pixel_buffer_dma_draw_vline>
	alt_up_pixel_buffer_dma_draw_vline(pixel_buf, 100, 220, 300, ((0x3ff << 20) + (0x3ff << 10) + (0x3ff)), 0);
     380:	d8000115 	stw	zero,4(sp)
     384:	00900034 	movhi	r2,16384
     388:	10bfffc4 	addi	r2,r2,-1
     38c:	d8800015 	stw	r2,0(sp)
     390:	01c04b04 	movi	r7,300
     394:	01803704 	movi	r6,220
     398:	01401904 	movi	r5,100
     39c:	e13e4417 	ldw	r4,-1776(fp)
     3a0:	001ddb80 	call	1ddb8 <alt_up_pixel_buffer_dma_draw_vline>

	alt_up_char_buffer_string(char_buf, "Frequency(Hz)", 4, 4);
     3a4:	01c00104 	movi	r7,4
     3a8:	01800104 	movi	r6,4
     3ac:	01420034 	movhi	r5,2048
     3b0:	29402104 	addi	r5,r5,132
     3b4:	e13e4517 	ldw	r4,-1772(fp)
     3b8:	001d38c0 	call	1d38c <alt_up_char_buffer_string>
	alt_up_char_buffer_string(char_buf, "52", 10, 7);
     3bc:	01c001c4 	movi	r7,7
     3c0:	01800284 	movi	r6,10
     3c4:	01420034 	movhi	r5,2048
     3c8:	29402504 	addi	r5,r5,148
     3cc:	e13e4517 	ldw	r4,-1772(fp)
     3d0:	001d38c0 	call	1d38c <alt_up_char_buffer_string>
	alt_up_char_buffer_string(char_buf, "50", 10, 12);
     3d4:	01c00304 	movi	r7,12
     3d8:	01800284 	movi	r6,10
     3dc:	01420034 	movhi	r5,2048
     3e0:	29402604 	addi	r5,r5,152
     3e4:	e13e4517 	ldw	r4,-1772(fp)
     3e8:	001d38c0 	call	1d38c <alt_up_char_buffer_string>
	alt_up_char_buffer_string(char_buf, "48", 10, 17);
     3ec:	01c00444 	movi	r7,17
     3f0:	01800284 	movi	r6,10
     3f4:	01420034 	movhi	r5,2048
     3f8:	29402704 	addi	r5,r5,156
     3fc:	e13e4517 	ldw	r4,-1772(fp)
     400:	001d38c0 	call	1d38c <alt_up_char_buffer_string>
	alt_up_char_buffer_string(char_buf, "46", 10, 22);
     404:	01c00584 	movi	r7,22
     408:	01800284 	movi	r6,10
     40c:	01420034 	movhi	r5,2048
     410:	29402804 	addi	r5,r5,160
     414:	e13e4517 	ldw	r4,-1772(fp)
     418:	001d38c0 	call	1d38c <alt_up_char_buffer_string>

	alt_up_char_buffer_string(char_buf, "df/dt(Hz/s)", 4, 26);
     41c:	01c00684 	movi	r7,26
     420:	01800104 	movi	r6,4
     424:	01420034 	movhi	r5,2048
     428:	29402904 	addi	r5,r5,164
     42c:	e13e4517 	ldw	r4,-1772(fp)
     430:	001d38c0 	call	1d38c <alt_up_char_buffer_string>
	alt_up_char_buffer_string(char_buf, "60", 10, 28);
     434:	01c00704 	movi	r7,28
     438:	01800284 	movi	r6,10
     43c:	01420034 	movhi	r5,2048
     440:	29402c04 	addi	r5,r5,176
     444:	e13e4517 	ldw	r4,-1772(fp)
     448:	001d38c0 	call	1d38c <alt_up_char_buffer_string>
	alt_up_char_buffer_string(char_buf, "30", 10, 30);
     44c:	01c00784 	movi	r7,30
     450:	01800284 	movi	r6,10
     454:	01420034 	movhi	r5,2048
     458:	29402d04 	addi	r5,r5,180
     45c:	e13e4517 	ldw	r4,-1772(fp)
     460:	001d38c0 	call	1d38c <alt_up_char_buffer_string>
	alt_up_char_buffer_string(char_buf, "0", 10, 32);
     464:	01c00804 	movi	r7,32
     468:	01800284 	movi	r6,10
     46c:	01420034 	movhi	r5,2048
     470:	29402e04 	addi	r5,r5,184
     474:	e13e4517 	ldw	r4,-1772(fp)
     478:	001d38c0 	call	1d38c <alt_up_char_buffer_string>
	alt_up_char_buffer_string(char_buf, "-30", 9, 34);
     47c:	01c00884 	movi	r7,34
     480:	01800244 	movi	r6,9
     484:	01420034 	movhi	r5,2048
     488:	29402f04 	addi	r5,r5,188
     48c:	e13e4517 	ldw	r4,-1772(fp)
     490:	001d38c0 	call	1d38c <alt_up_char_buffer_string>
	alt_up_char_buffer_string(char_buf, "-60", 9, 36);
     494:	01c00904 	movi	r7,36
     498:	01800244 	movi	r6,9
     49c:	01420034 	movhi	r5,2048
     4a0:	29403004 	addi	r5,r5,192
     4a4:	e13e4517 	ldw	r4,-1772(fp)
     4a8:	001d38c0 	call	1d38c <alt_up_char_buffer_string>

	// prints current threshold on VGA display - col, row
	alt_up_char_buffer_string(char_buf, "Frequency Threshold(Hz):", 4, 40);
     4ac:	01c00a04 	movi	r7,40
     4b0:	01800104 	movi	r6,4
     4b4:	01420034 	movhi	r5,2048
     4b8:	29403104 	addi	r5,r5,196
     4bc:	e13e4517 	ldw	r4,-1772(fp)
     4c0:	001d38c0 	call	1d38c <alt_up_char_buffer_string>
	alt_up_char_buffer_string(char_buf, "RoC Threshold(Hz):", 4, 43);
     4c4:	01c00ac4 	movi	r7,43
     4c8:	01800104 	movi	r6,4
     4cc:	01420034 	movhi	r5,2048
     4d0:	29403804 	addi	r5,r5,224
     4d4:	e13e4517 	ldw	r4,-1772(fp)
     4d8:	001d38c0 	call	1d38c <alt_up_char_buffer_string>
	alt_up_char_buffer_string(char_buf, "Stability:", 4, 49);
     4dc:	01c00c44 	movi	r7,49
     4e0:	01800104 	movi	r6,4
     4e4:	01420034 	movhi	r5,2048
     4e8:	29403d04 	addi	r5,r5,244
     4ec:	e13e4517 	ldw	r4,-1772(fp)
     4f0:	001d38c0 	call	1d38c <alt_up_char_buffer_string>
	alt_up_char_buffer_string(char_buf, "System Active Time:", 0, 0);
     4f4:	000f883a 	mov	r7,zero
     4f8:	000d883a 	mov	r6,zero
     4fc:	01420034 	movhi	r5,2048
     500:	29404004 	addi	r5,r5,256
     504:	e13e4517 	ldw	r4,-1772(fp)
     508:	001d38c0 	call	1d38c <alt_up_char_buffer_string>
	alt_up_char_buffer_string(char_buf, "Maximum Time:", 50, 40);
     50c:	01c00a04 	movi	r7,40
     510:	01800c84 	movi	r6,50
     514:	01420034 	movhi	r5,2048
     518:	29404504 	addi	r5,r5,276
     51c:	e13e4517 	ldw	r4,-1772(fp)
     520:	001d38c0 	call	1d38c <alt_up_char_buffer_string>
	alt_up_char_buffer_string(char_buf, "Minimum Time:", 50, 43);
     524:	01c00ac4 	movi	r7,43
     528:	01800c84 	movi	r6,50
     52c:	01420034 	movhi	r5,2048
     530:	29404904 	addi	r5,r5,292
     534:	e13e4517 	ldw	r4,-1772(fp)
     538:	001d38c0 	call	1d38c <alt_up_char_buffer_string>
	alt_up_char_buffer_string(char_buf, "Average Time:", 50, 46);
     53c:	01c00b84 	movi	r7,46
     540:	01800c84 	movi	r6,50
     544:	01420034 	movhi	r5,2048
     548:	29404d04 	addi	r5,r5,308
     54c:	e13e4517 	ldw	r4,-1772(fp)
     550:	001d38c0 	call	1d38c <alt_up_char_buffer_string>
	alt_up_char_buffer_string(char_buf, "Recent Records (Most to Least):", 4, 52);
     554:	01c00d04 	movi	r7,52
     558:	01800104 	movi	r6,4
     55c:	01420034 	movhi	r5,2048
     560:	29405104 	addi	r5,r5,324
     564:	e13e4517 	ldw	r4,-1772(fp)
     568:	001d38c0 	call	1d38c <alt_up_char_buffer_string>
	char recentRecord3[10];
	char recentRecord4[10];
	char recentRecord5[10];

	double freq[100], dfreq[100];
	int i = 99, j = 0;
     56c:	008018c4 	movi	r2,99
     570:	e0be4215 	stw	r2,-1784(fp)
     574:	e03e4315 	stw	zero,-1780(fp)
	Line line_freq, line_roc;

	while(1){
		sprintf(freqThresStr, "%.2f", dThresFreq);
     578:	d0a00197 	ldw	r2,-32762(gp)
     57c:	d0e00297 	ldw	r3,-32758(gp)
     580:	e13e4804 	addi	r4,fp,-1760
     584:	100d883a 	mov	r6,r2
     588:	180f883a 	mov	r7,r3
     58c:	01420034 	movhi	r5,2048
     590:	29405904 	addi	r5,r5,356
     594:	000bfb40 	call	bfb4 <sprintf>
		alt_up_char_buffer_string(char_buf, freqThresStr, 30, 40);
     598:	e0be4804 	addi	r2,fp,-1760
     59c:	01c00a04 	movi	r7,40
     5a0:	01800784 	movi	r6,30
     5a4:	100b883a 	mov	r5,r2
     5a8:	e13e4517 	ldw	r4,-1772(fp)
     5ac:	001d38c0 	call	1d38c <alt_up_char_buffer_string>
		sprintf(rocThresStr, "%.2f", dThresRoc);
     5b0:	d0a00397 	ldw	r2,-32754(gp)
     5b4:	d0e00497 	ldw	r3,-32750(gp)
     5b8:	e13e4a84 	addi	r4,fp,-1750
     5bc:	100d883a 	mov	r6,r2
     5c0:	180f883a 	mov	r7,r3
     5c4:	01420034 	movhi	r5,2048
     5c8:	29405904 	addi	r5,r5,356
     5cc:	000bfb40 	call	bfb4 <sprintf>
		alt_up_char_buffer_string(char_buf, rocThresStr, 25, 43);
     5d0:	e0be4a84 	addi	r2,fp,-1750
     5d4:	01c00ac4 	movi	r7,43
     5d8:	01800644 	movi	r6,25
     5dc:	100b883a 	mov	r5,r2
     5e0:	e13e4517 	ldw	r4,-1772(fp)
     5e4:	001d38c0 	call	1d38c <alt_up_char_buffer_string>

		sprintf(maxStr, "%u", maxTime);
     5e8:	d0e02097 	ldw	r3,-32638(gp)
     5ec:	e0be5104 	addi	r2,fp,-1724
     5f0:	180d883a 	mov	r6,r3
     5f4:	01420034 	movhi	r5,2048
     5f8:	29405b04 	addi	r5,r5,364
     5fc:	1009883a 	mov	r4,r2
     600:	000bfb40 	call	bfb4 <sprintf>
		alt_up_char_buffer_string(char_buf, maxStr, 65, 40);
     604:	e0be5104 	addi	r2,fp,-1724
     608:	01c00a04 	movi	r7,40
     60c:	01801044 	movi	r6,65
     610:	100b883a 	mov	r5,r2
     614:	e13e4517 	ldw	r4,-1772(fp)
     618:	001d38c0 	call	1d38c <alt_up_char_buffer_string>
		sprintf(minStr, "%u", minTime);
     61c:	d0e00097 	ldw	r3,-32766(gp)
     620:	e0be5384 	addi	r2,fp,-1714
     624:	180d883a 	mov	r6,r3
     628:	01420034 	movhi	r5,2048
     62c:	29405b04 	addi	r5,r5,364
     630:	1009883a 	mov	r4,r2
     634:	000bfb40 	call	bfb4 <sprintf>
		alt_up_char_buffer_string(char_buf, minStr, 65, 43);
     638:	e0be5384 	addi	r2,fp,-1714
     63c:	01c00ac4 	movi	r7,43
     640:	01801044 	movi	r6,65
     644:	100b883a 	mov	r5,r2
     648:	e13e4517 	ldw	r4,-1772(fp)
     64c:	001d38c0 	call	1d38c <alt_up_char_buffer_string>
		sprintf(avgStr, "%u", avgTime);
     650:	d0e02197 	ldw	r3,-32634(gp)
     654:	e0be5604 	addi	r2,fp,-1704
     658:	180d883a 	mov	r6,r3
     65c:	01420034 	movhi	r5,2048
     660:	29405b04 	addi	r5,r5,364
     664:	1009883a 	mov	r4,r2
     668:	000bfb40 	call	bfb4 <sprintf>
		alt_up_char_buffer_string(char_buf, avgStr, 65, 46);
     66c:	e0be5604 	addi	r2,fp,-1704
     670:	01c00b84 	movi	r7,46
     674:	01801044 	movi	r6,65
     678:	100b883a 	mov	r5,r2
     67c:	e13e4517 	ldw	r4,-1772(fp)
     680:	001d38c0 	call	1d38c <alt_up_char_buffer_string>

		sprintf(recentRecord5, "%d", topFiveRecords[0]);
     684:	00820034 	movhi	r2,2048
     688:	108bb004 	addi	r2,r2,11968
     68c:	10c00017 	ldw	r3,0(r2)
     690:	e0be6284 	addi	r2,fp,-1654
     694:	180d883a 	mov	r6,r3
     698:	01420034 	movhi	r5,2048
     69c:	29405c04 	addi	r5,r5,368
     6a0:	1009883a 	mov	r4,r2
     6a4:	000bfb40 	call	bfb4 <sprintf>
		alt_up_char_buffer_string(char_buf, maxStr, 4, 54);
     6a8:	e0be5104 	addi	r2,fp,-1724
     6ac:	01c00d84 	movi	r7,54
     6b0:	01800104 	movi	r6,4
     6b4:	100b883a 	mov	r5,r2
     6b8:	e13e4517 	ldw	r4,-1772(fp)
     6bc:	001d38c0 	call	1d38c <alt_up_char_buffer_string>
		sprintf(recentRecord4, "%d", topFiveRecords[1]);
     6c0:	00820034 	movhi	r2,2048
     6c4:	108bb004 	addi	r2,r2,11968
     6c8:	10c00117 	ldw	r3,4(r2)
     6cc:	e0be6004 	addi	r2,fp,-1664
     6d0:	180d883a 	mov	r6,r3
     6d4:	01420034 	movhi	r5,2048
     6d8:	29405c04 	addi	r5,r5,368
     6dc:	1009883a 	mov	r4,r2
     6e0:	000bfb40 	call	bfb4 <sprintf>
		alt_up_char_buffer_string(char_buf, maxStr, 6, 53);
     6e4:	e0be5104 	addi	r2,fp,-1724
     6e8:	01c00d44 	movi	r7,53
     6ec:	01800184 	movi	r6,6
     6f0:	100b883a 	mov	r5,r2
     6f4:	e13e4517 	ldw	r4,-1772(fp)
     6f8:	001d38c0 	call	1d38c <alt_up_char_buffer_string>
		sprintf(recentRecord3, "%d", topFiveRecords[2]);
     6fc:	00820034 	movhi	r2,2048
     700:	108bb004 	addi	r2,r2,11968
     704:	10c00217 	ldw	r3,8(r2)
     708:	e0be5d84 	addi	r2,fp,-1674
     70c:	180d883a 	mov	r6,r3
     710:	01420034 	movhi	r5,2048
     714:	29405c04 	addi	r5,r5,368
     718:	1009883a 	mov	r4,r2
     71c:	000bfb40 	call	bfb4 <sprintf>
		alt_up_char_buffer_string(char_buf, maxStr, 8, 53);
     720:	e0be5104 	addi	r2,fp,-1724
     724:	01c00d44 	movi	r7,53
     728:	01800204 	movi	r6,8
     72c:	100b883a 	mov	r5,r2
     730:	e13e4517 	ldw	r4,-1772(fp)
     734:	001d38c0 	call	1d38c <alt_up_char_buffer_string>
		sprintf(recentRecord2, "%d", topFiveRecords[3]);
     738:	00820034 	movhi	r2,2048
     73c:	108bb004 	addi	r2,r2,11968
     740:	10c00317 	ldw	r3,12(r2)
     744:	e0be5b04 	addi	r2,fp,-1684
     748:	180d883a 	mov	r6,r3
     74c:	01420034 	movhi	r5,2048
     750:	29405c04 	addi	r5,r5,368
     754:	1009883a 	mov	r4,r2
     758:	000bfb40 	call	bfb4 <sprintf>
		alt_up_char_buffer_string(char_buf, maxStr, 10, 53);
     75c:	e0be5104 	addi	r2,fp,-1724
     760:	01c00d44 	movi	r7,53
     764:	01800284 	movi	r6,10
     768:	100b883a 	mov	r5,r2
     76c:	e13e4517 	ldw	r4,-1772(fp)
     770:	001d38c0 	call	1d38c <alt_up_char_buffer_string>
		sprintf(recentRecord1, "%d", topFiveRecords[4]);
     774:	00820034 	movhi	r2,2048
     778:	108bb004 	addi	r2,r2,11968
     77c:	10c00417 	ldw	r3,16(r2)
     780:	e0be5884 	addi	r2,fp,-1694
     784:	180d883a 	mov	r6,r3
     788:	01420034 	movhi	r5,2048
     78c:	29405c04 	addi	r5,r5,368
     790:	1009883a 	mov	r4,r2
     794:	000bfb40 	call	bfb4 <sprintf>
		alt_up_char_buffer_string(char_buf, maxStr, 12, 53);
     798:	e0be5104 	addi	r2,fp,-1724
     79c:	01c00d44 	movi	r7,53
     7a0:	01800304 	movi	r6,12
     7a4:	100b883a 	mov	r5,r2
     7a8:	e13e4517 	ldw	r4,-1772(fp)
     7ac:	001d38c0 	call	1d38c <alt_up_char_buffer_string>


		double time = xTaskGetTickCount() / 1000.0;
     7b0:	00052cc0 	call	52cc <xTaskGetTickCount>
     7b4:	1009883a 	mov	r4,r2
     7b8:	00097c80 	call	97c8 <__floatunsidf>
     7bc:	1011883a 	mov	r8,r2
     7c0:	1813883a 	mov	r9,r3
     7c4:	000d883a 	mov	r6,zero
     7c8:	01d023f4 	movhi	r7,16527
     7cc:	39d00004 	addi	r7,r7,16384
     7d0:	4009883a 	mov	r4,r8
     7d4:	480b883a 	mov	r5,r9
     7d8:	0007ba00 	call	7ba0 <__divdf3>
     7dc:	1009883a 	mov	r4,r2
     7e0:	180b883a 	mov	r5,r3
     7e4:	e13e4615 	stw	r4,-1768(fp)
     7e8:	e17e4715 	stw	r5,-1764(fp)
		sprintf(timeStr, "%.2f", time);
     7ec:	e0be4d04 	addi	r2,fp,-1740
     7f0:	e1be4617 	ldw	r6,-1768(fp)
     7f4:	e1fe4717 	ldw	r7,-1764(fp)
     7f8:	01420034 	movhi	r5,2048
     7fc:	29405904 	addi	r5,r5,356
     800:	1009883a 	mov	r4,r2
     804:	000bfb40 	call	bfb4 <sprintf>
		alt_up_char_buffer_string(char_buf, timeStr, 20, 0);
     808:	e0be4d04 	addi	r2,fp,-1740
     80c:	000f883a 	mov	r7,zero
     810:	01800504 	movi	r6,20
     814:	100b883a 	mov	r5,r2
     818:	e13e4517 	ldw	r4,-1772(fp)
     81c:	001d38c0 	call	1d38c <alt_up_char_buffer_string>

		if(uxQueueMessagesWaiting(QStability) != 0){
     820:	d0a03297 	ldw	r2,-32566(gp)
     824:	1009883a 	mov	r4,r2
     828:	00047800 	call	4780 <uxQueueMessagesWaiting>
     82c:	1000ef26 	beq	r2,zero,bec <PRVGADraw_Task+0x950>
			xQueueReceive(QStability,  (void *) &iVgaStable, portMAX_DELAY);
     830:	d0a03297 	ldw	r2,-32566(gp)
     834:	e0fe5004 	addi	r3,fp,-1728
     838:	000f883a 	mov	r7,zero
     83c:	01bfffc4 	movi	r6,-1
     840:	180b883a 	mov	r5,r3
     844:	1009883a 	mov	r4,r2
     848:	000441c0 	call	441c <xQueueGenericReceive>

			if (iVgaStable == 0){
     84c:	e0be5017 	ldw	r2,-1728(fp)
     850:	1000071e 	bne	r2,zero,870 <PRVGADraw_Task+0x5d4>
				alt_up_char_buffer_string(char_buf, "Unstable", 15, 49);
     854:	01c00c44 	movi	r7,49
     858:	018003c4 	movi	r6,15
     85c:	01420034 	movhi	r5,2048
     860:	29405d04 	addi	r5,r5,372
     864:	e13e4517 	ldw	r4,-1772(fp)
     868:	001d38c0 	call	1d38c <alt_up_char_buffer_string>
     86c:	0000df06 	br	bec <PRVGADraw_Task+0x950>
			}
			else
			{
				alt_up_char_buffer_string(char_buf, "Stable  ", 15, 49);
     870:	01c00c44 	movi	r7,49
     874:	018003c4 	movi	r6,15
     878:	01420034 	movhi	r5,2048
     87c:	29406004 	addi	r5,r5,384
     880:	e13e4517 	ldw	r4,-1772(fp)
     884:	001d38c0 	call	1d38c <alt_up_char_buffer_string>
			}
		}


		//receive frequency data from queue
		while(uxQueueMessagesWaiting(QFreqDataVGA) != 0){
     888:	0000d806 	br	bec <PRVGADraw_Task+0x950>
			xQueueReceive(QFreqDataVGA, freq+i, 0);
     88c:	d1203797 	ldw	r4,-32546(gp)
     890:	e0be4217 	ldw	r2,-1784(fp)
     894:	100490fa 	slli	r2,r2,3
     898:	e0fe6504 	addi	r3,fp,-1644
     89c:	1885883a 	add	r2,r3,r2
     8a0:	000f883a 	mov	r7,zero
     8a4:	000d883a 	mov	r6,zero
     8a8:	100b883a 	mov	r5,r2
     8ac:	000441c0 	call	441c <xQueueGenericReceive>

			//calculate frequency RoC

			if(i==0){
     8b0:	e0be4217 	ldw	r2,-1784(fp)
     8b4:	1000451e 	bne	r2,zero,9cc <PRVGADraw_Task+0x730>
				dfreq[0] = (freq[0]-freq[99]) * 2.0 * freq[0] * freq[99] / (freq[0]+freq[99]);
     8b8:	e0be6517 	ldw	r2,-1644(fp)
     8bc:	e0fe6617 	ldw	r3,-1640(fp)
     8c0:	e13f2b17 	ldw	r4,-852(fp)
     8c4:	e17f2c17 	ldw	r5,-848(fp)
     8c8:	200d883a 	mov	r6,r4
     8cc:	280f883a 	mov	r7,r5
     8d0:	1009883a 	mov	r4,r2
     8d4:	180b883a 	mov	r5,r3
     8d8:	0008d700 	call	8d70 <__subdf3>
     8dc:	1009883a 	mov	r4,r2
     8e0:	180b883a 	mov	r5,r3
     8e4:	2005883a 	mov	r2,r4
     8e8:	2807883a 	mov	r3,r5
     8ec:	100d883a 	mov	r6,r2
     8f0:	180f883a 	mov	r7,r3
     8f4:	1009883a 	mov	r4,r2
     8f8:	180b883a 	mov	r5,r3
     8fc:	00072f40 	call	72f4 <__adddf3>
     900:	1009883a 	mov	r4,r2
     904:	180b883a 	mov	r5,r3
     908:	2011883a 	mov	r8,r4
     90c:	2813883a 	mov	r9,r5
     910:	e0be6517 	ldw	r2,-1644(fp)
     914:	e0fe6617 	ldw	r3,-1640(fp)
     918:	100d883a 	mov	r6,r2
     91c:	180f883a 	mov	r7,r3
     920:	4009883a 	mov	r4,r8
     924:	480b883a 	mov	r5,r9
     928:	00086580 	call	8658 <__muldf3>
     92c:	1009883a 	mov	r4,r2
     930:	180b883a 	mov	r5,r3
     934:	2011883a 	mov	r8,r4
     938:	2813883a 	mov	r9,r5
     93c:	e0bf2b17 	ldw	r2,-852(fp)
     940:	e0ff2c17 	ldw	r3,-848(fp)
     944:	100d883a 	mov	r6,r2
     948:	180f883a 	mov	r7,r3
     94c:	4009883a 	mov	r4,r8
     950:	480b883a 	mov	r5,r9
     954:	00086580 	call	8658 <__muldf3>
     958:	1009883a 	mov	r4,r2
     95c:	180b883a 	mov	r5,r3
     960:	2021883a 	mov	r16,r4
     964:	2823883a 	mov	r17,r5
     968:	e0be6517 	ldw	r2,-1644(fp)
     96c:	e0fe6617 	ldw	r3,-1640(fp)
     970:	e13f2b17 	ldw	r4,-852(fp)
     974:	e17f2c17 	ldw	r5,-848(fp)
     978:	200d883a 	mov	r6,r4
     97c:	280f883a 	mov	r7,r5
     980:	1009883a 	mov	r4,r2
     984:	180b883a 	mov	r5,r3
     988:	00072f40 	call	72f4 <__adddf3>
     98c:	1009883a 	mov	r4,r2
     990:	180b883a 	mov	r5,r3
     994:	2005883a 	mov	r2,r4
     998:	2807883a 	mov	r3,r5
     99c:	100d883a 	mov	r6,r2
     9a0:	180f883a 	mov	r7,r3
     9a4:	8009883a 	mov	r4,r16
     9a8:	880b883a 	mov	r5,r17
     9ac:	0007ba00 	call	7ba0 <__divdf3>
     9b0:	1009883a 	mov	r4,r2
     9b4:	180b883a 	mov	r5,r3
     9b8:	2005883a 	mov	r2,r4
     9bc:	2807883a 	mov	r3,r5
     9c0:	e0bf2d15 	stw	r2,-844(fp)
     9c4:	e0ff2e15 	stw	r3,-840(fp)
     9c8:	00006a06 	br	b74 <PRVGADraw_Task+0x8d8>
			}
			else{

				dfreq[i] = (freq[i]-freq[i-1]) * 2.0 * freq[i]* freq[i-1] / (freq[i]+freq[i-1]);
     9cc:	e0be4217 	ldw	r2,-1784(fp)
     9d0:	100490fa 	slli	r2,r2,3
     9d4:	e0fe4204 	addi	r3,fp,-1784
     9d8:	1885883a 	add	r2,r3,r2
     9dc:	11002304 	addi	r4,r2,140
     9e0:	20800017 	ldw	r2,0(r4)
     9e4:	20c00117 	ldw	r3,4(r4)
     9e8:	e13e4217 	ldw	r4,-1784(fp)
     9ec:	213fffc4 	addi	r4,r4,-1
     9f0:	200890fa 	slli	r4,r4,3
     9f4:	e17e4204 	addi	r5,fp,-1784
     9f8:	2909883a 	add	r4,r5,r4
     9fc:	21802304 	addi	r6,r4,140
     a00:	31000017 	ldw	r4,0(r6)
     a04:	31400117 	ldw	r5,4(r6)
     a08:	200d883a 	mov	r6,r4
     a0c:	280f883a 	mov	r7,r5
     a10:	1009883a 	mov	r4,r2
     a14:	180b883a 	mov	r5,r3
     a18:	0008d700 	call	8d70 <__subdf3>
     a1c:	1009883a 	mov	r4,r2
     a20:	180b883a 	mov	r5,r3
     a24:	2005883a 	mov	r2,r4
     a28:	2807883a 	mov	r3,r5
     a2c:	100d883a 	mov	r6,r2
     a30:	180f883a 	mov	r7,r3
     a34:	1009883a 	mov	r4,r2
     a38:	180b883a 	mov	r5,r3
     a3c:	00072f40 	call	72f4 <__adddf3>
     a40:	1009883a 	mov	r4,r2
     a44:	180b883a 	mov	r5,r3
     a48:	2011883a 	mov	r8,r4
     a4c:	2813883a 	mov	r9,r5
     a50:	e0be4217 	ldw	r2,-1784(fp)
     a54:	100490fa 	slli	r2,r2,3
     a58:	e0fe4204 	addi	r3,fp,-1784
     a5c:	1885883a 	add	r2,r3,r2
     a60:	11002304 	addi	r4,r2,140
     a64:	20800017 	ldw	r2,0(r4)
     a68:	20c00117 	ldw	r3,4(r4)
     a6c:	100d883a 	mov	r6,r2
     a70:	180f883a 	mov	r7,r3
     a74:	4009883a 	mov	r4,r8
     a78:	480b883a 	mov	r5,r9
     a7c:	00086580 	call	8658 <__muldf3>
     a80:	1009883a 	mov	r4,r2
     a84:	180b883a 	mov	r5,r3
     a88:	2011883a 	mov	r8,r4
     a8c:	2813883a 	mov	r9,r5
     a90:	e0be4217 	ldw	r2,-1784(fp)
     a94:	10bfffc4 	addi	r2,r2,-1
     a98:	100490fa 	slli	r2,r2,3
     a9c:	e17e4204 	addi	r5,fp,-1784
     aa0:	2885883a 	add	r2,r5,r2
     aa4:	11002304 	addi	r4,r2,140
     aa8:	20800017 	ldw	r2,0(r4)
     aac:	20c00117 	ldw	r3,4(r4)
     ab0:	100d883a 	mov	r6,r2
     ab4:	180f883a 	mov	r7,r3
     ab8:	4009883a 	mov	r4,r8
     abc:	480b883a 	mov	r5,r9
     ac0:	00086580 	call	8658 <__muldf3>
     ac4:	1009883a 	mov	r4,r2
     ac8:	180b883a 	mov	r5,r3
     acc:	2021883a 	mov	r16,r4
     ad0:	2823883a 	mov	r17,r5
     ad4:	e0be4217 	ldw	r2,-1784(fp)
     ad8:	100490fa 	slli	r2,r2,3
     adc:	e0fe4204 	addi	r3,fp,-1784
     ae0:	1885883a 	add	r2,r3,r2
     ae4:	11002304 	addi	r4,r2,140
     ae8:	20800017 	ldw	r2,0(r4)
     aec:	20c00117 	ldw	r3,4(r4)
     af0:	e13e4217 	ldw	r4,-1784(fp)
     af4:	213fffc4 	addi	r4,r4,-1
     af8:	200890fa 	slli	r4,r4,3
     afc:	e17e4204 	addi	r5,fp,-1784
     b00:	2909883a 	add	r4,r5,r4
     b04:	21802304 	addi	r6,r4,140
     b08:	31000017 	ldw	r4,0(r6)
     b0c:	31400117 	ldw	r5,4(r6)
     b10:	200d883a 	mov	r6,r4
     b14:	280f883a 	mov	r7,r5
     b18:	1009883a 	mov	r4,r2
     b1c:	180b883a 	mov	r5,r3
     b20:	00072f40 	call	72f4 <__adddf3>
     b24:	1009883a 	mov	r4,r2
     b28:	180b883a 	mov	r5,r3
     b2c:	2005883a 	mov	r2,r4
     b30:	2807883a 	mov	r3,r5
     b34:	100d883a 	mov	r6,r2
     b38:	180f883a 	mov	r7,r3
     b3c:	8009883a 	mov	r4,r16
     b40:	880b883a 	mov	r5,r17
     b44:	0007ba00 	call	7ba0 <__divdf3>
     b48:	1009883a 	mov	r4,r2
     b4c:	180b883a 	mov	r5,r3
     b50:	2005883a 	mov	r2,r4
     b54:	2807883a 	mov	r3,r5
     b58:	e13e4217 	ldw	r4,-1784(fp)
     b5c:	200890fa 	slli	r4,r4,3
     b60:	e17e4204 	addi	r5,fp,-1784
     b64:	2909883a 	add	r4,r5,r4
     b68:	2100eb04 	addi	r4,r4,940
     b6c:	20800015 	stw	r2,0(r4)
     b70:	20c00115 	stw	r3,4(r4)
			}

			if (dfreq[i] > 100.0){
     b74:	e0be4217 	ldw	r2,-1784(fp)
     b78:	100490fa 	slli	r2,r2,3
     b7c:	e0fe4204 	addi	r3,fp,-1784
     b80:	1885883a 	add	r2,r3,r2
     b84:	1100eb04 	addi	r4,r2,940
     b88:	20800017 	ldw	r2,0(r4)
     b8c:	20c00117 	ldw	r3,4(r4)
     b90:	000d883a 	mov	r6,zero
     b94:	01d01674 	movhi	r7,16473
     b98:	1009883a 	mov	r4,r2
     b9c:	180b883a 	mov	r5,r3
     ba0:	00084880 	call	8488 <__gedf2>
     ba4:	0080080e 	bge	zero,r2,bc8 <PRVGADraw_Task+0x92c>
				dfreq[i] = 100.0;
     ba8:	e0be4217 	ldw	r2,-1784(fp)
     bac:	100490fa 	slli	r2,r2,3
     bb0:	e17e4204 	addi	r5,fp,-1784
     bb4:	2885883a 	add	r2,r5,r2
     bb8:	1080eb04 	addi	r2,r2,940
     bbc:	10000015 	stw	zero,0(r2)
     bc0:	00d01674 	movhi	r3,16473
     bc4:	10c00115 	stw	r3,4(r2)
			}


			i =	(++i) % 100; //point to the next data (oldest) to be overwritten
     bc8:	e0be4217 	ldw	r2,-1784(fp)
     bcc:	10800044 	addi	r2,r2,1
     bd0:	e0be4215 	stw	r2,-1784(fp)
     bd4:	e0be4217 	ldw	r2,-1784(fp)
     bd8:	00c01904 	movi	r3,100
     bdc:	10c7283a 	div	r3,r2,r3
     be0:	18c01924 	muli	r3,r3,100
     be4:	10c5c83a 	sub	r2,r2,r3
     be8:	e0be4215 	stw	r2,-1784(fp)
			}
		}


		//receive frequency data from queue
		while(uxQueueMessagesWaiting(QFreqDataVGA) != 0){
     bec:	d0a03797 	ldw	r2,-32546(gp)
     bf0:	1009883a 	mov	r4,r2
     bf4:	00047800 	call	4780 <uxQueueMessagesWaiting>
     bf8:	103f241e 	bne	r2,zero,88c <__alt_data_end+0xf000088c>
			i =	(++i) % 100; //point to the next data (oldest) to be overwritten

		}

		//clear old graph to draw new graph
		alt_up_pixel_buffer_dma_draw_box(pixel_buf, 101, 0, 639, 199, 0, 0);
     bfc:	d8000215 	stw	zero,8(sp)
     c00:	d8000115 	stw	zero,4(sp)
     c04:	008031c4 	movi	r2,199
     c08:	d8800015 	stw	r2,0(sp)
     c0c:	01c09fc4 	movi	r7,639
     c10:	000d883a 	mov	r6,zero
     c14:	01401944 	movi	r5,101
     c18:	e13e4417 	ldw	r4,-1776(fp)
     c1c:	001d8cc0 	call	1d8cc <alt_up_pixel_buffer_dma_draw_box>
		alt_up_pixel_buffer_dma_draw_box(pixel_buf, 101, 201, 639, 299, 0, 0);
     c20:	d8000215 	stw	zero,8(sp)
     c24:	d8000115 	stw	zero,4(sp)
     c28:	00804ac4 	movi	r2,299
     c2c:	d8800015 	stw	r2,0(sp)
     c30:	01c09fc4 	movi	r7,639
     c34:	01803244 	movi	r6,201
     c38:	01401944 	movi	r5,101
     c3c:	e13e4417 	ldw	r4,-1776(fp)
     c40:	001d8cc0 	call	1d8cc <alt_up_pixel_buffer_dma_draw_box>

		for(j=0;j<99;++j){ //i here points to the oldest data, j loops through all the data to be drawn on VGA
     c44:	e03e4315 	stw	zero,-1780(fp)
     c48:	00011406 	br	109c <PRVGADraw_Task+0xe00>
			if (((int)(freq[(i+j)%100]) > MIN_FREQ) && ((int)(freq[(i+j+1)%100]) > MIN_FREQ)){
     c4c:	e0fe4217 	ldw	r3,-1784(fp)
     c50:	e0be4317 	ldw	r2,-1780(fp)
     c54:	1885883a 	add	r2,r3,r2
     c58:	00c01904 	movi	r3,100
     c5c:	10c7283a 	div	r3,r2,r3
     c60:	18c01924 	muli	r3,r3,100
     c64:	10c5c83a 	sub	r2,r2,r3
     c68:	100490fa 	slli	r2,r2,3
     c6c:	e0fe4204 	addi	r3,fp,-1784
     c70:	1885883a 	add	r2,r3,r2
     c74:	11002304 	addi	r4,r2,140
     c78:	20800017 	ldw	r2,0(r4)
     c7c:	20c00117 	ldw	r3,4(r4)
     c80:	1009883a 	mov	r4,r2
     c84:	180b883a 	mov	r5,r3
     c88:	000966c0 	call	966c <__fixdfsi>
     c8c:	1009883a 	mov	r4,r2
     c90:	00096ec0 	call	96ec <__floatsidf>
     c94:	1011883a 	mov	r8,r2
     c98:	1813883a 	mov	r9,r3
     c9c:	000d883a 	mov	r6,zero
     ca0:	01d011f4 	movhi	r7,16455
     ca4:	39e00004 	addi	r7,r7,-32768
     ca8:	4009883a 	mov	r4,r8
     cac:	480b883a 	mov	r5,r9
     cb0:	00084880 	call	8488 <__gedf2>
     cb4:	0080f60e 	bge	zero,r2,1090 <PRVGADraw_Task+0xdf4>
     cb8:	e0fe4217 	ldw	r3,-1784(fp)
     cbc:	e0be4317 	ldw	r2,-1780(fp)
     cc0:	1885883a 	add	r2,r3,r2
     cc4:	10800044 	addi	r2,r2,1
     cc8:	00c01904 	movi	r3,100
     ccc:	10c7283a 	div	r3,r2,r3
     cd0:	18c01924 	muli	r3,r3,100
     cd4:	10c5c83a 	sub	r2,r2,r3
     cd8:	100490fa 	slli	r2,r2,3
     cdc:	e17e4204 	addi	r5,fp,-1784
     ce0:	2885883a 	add	r2,r5,r2
     ce4:	11002304 	addi	r4,r2,140
     ce8:	20800017 	ldw	r2,0(r4)
     cec:	20c00117 	ldw	r3,4(r4)
     cf0:	1009883a 	mov	r4,r2
     cf4:	180b883a 	mov	r5,r3
     cf8:	000966c0 	call	966c <__fixdfsi>
     cfc:	1009883a 	mov	r4,r2
     d00:	00096ec0 	call	96ec <__floatsidf>
     d04:	1011883a 	mov	r8,r2
     d08:	1813883a 	mov	r9,r3
     d0c:	000d883a 	mov	r6,zero
     d10:	01d011f4 	movhi	r7,16455
     d14:	39e00004 	addi	r7,r7,-32768
     d18:	4009883a 	mov	r4,r8
     d1c:	480b883a 	mov	r5,r9
     d20:	00084880 	call	8488 <__gedf2>
     d24:	0080da0e 	bge	zero,r2,1090 <PRVGADraw_Task+0xdf4>
				//Calculate coordinates of the two data points to draw a line in between
				//Frequency plot
				line_freq.x1 = FREQPLT_ORI_X + FREQPLT_GRID_SIZE_X * j;
     d28:	e0be4317 	ldw	r2,-1780(fp)
     d2c:	10800164 	muli	r2,r2,5
     d30:	10801944 	addi	r2,r2,101
     d34:	e0bff515 	stw	r2,-44(fp)
				line_freq.y1 = (int)(FREQPLT_ORI_Y - FREQPLT_FREQ_RES * (freq[(i+j)%100] - MIN_FREQ));
     d38:	e0fe4217 	ldw	r3,-1784(fp)
     d3c:	e0be4317 	ldw	r2,-1780(fp)
     d40:	1885883a 	add	r2,r3,r2
     d44:	00c01904 	movi	r3,100
     d48:	10c7283a 	div	r3,r2,r3
     d4c:	18c01924 	muli	r3,r3,100
     d50:	10c5c83a 	sub	r2,r2,r3
     d54:	100490fa 	slli	r2,r2,3
     d58:	e0fe4204 	addi	r3,fp,-1784
     d5c:	1885883a 	add	r2,r3,r2
     d60:	11002304 	addi	r4,r2,140
     d64:	20800017 	ldw	r2,0(r4)
     d68:	20c00117 	ldw	r3,4(r4)
     d6c:	000d883a 	mov	r6,zero
     d70:	01d011f4 	movhi	r7,16455
     d74:	39e00004 	addi	r7,r7,-32768
     d78:	1009883a 	mov	r4,r2
     d7c:	180b883a 	mov	r5,r3
     d80:	0008d700 	call	8d70 <__subdf3>
     d84:	1009883a 	mov	r4,r2
     d88:	180b883a 	mov	r5,r3
     d8c:	2005883a 	mov	r2,r4
     d90:	2807883a 	mov	r3,r5
     d94:	000d883a 	mov	r6,zero
     d98:	01d00d34 	movhi	r7,16436
     d9c:	1009883a 	mov	r4,r2
     da0:	180b883a 	mov	r5,r3
     da4:	00086580 	call	8658 <__muldf3>
     da8:	1009883a 	mov	r4,r2
     dac:	180b883a 	mov	r5,r3
     db0:	2005883a 	mov	r2,r4
     db4:	2807883a 	mov	r3,r5
     db8:	100d883a 	mov	r6,r2
     dbc:	180f883a 	mov	r7,r3
     dc0:	0009883a 	mov	r4,zero
     dc4:	01501a74 	movhi	r5,16489
     dc8:	29780004 	addi	r5,r5,-8192
     dcc:	0008d700 	call	8d70 <__subdf3>
     dd0:	1009883a 	mov	r4,r2
     dd4:	180b883a 	mov	r5,r3
     dd8:	2005883a 	mov	r2,r4
     ddc:	2807883a 	mov	r3,r5
     de0:	1009883a 	mov	r4,r2
     de4:	180b883a 	mov	r5,r3
     de8:	000966c0 	call	966c <__fixdfsi>
     dec:	e0bff615 	stw	r2,-40(fp)

				line_freq.x2 = FREQPLT_ORI_X + FREQPLT_GRID_SIZE_X * (j + 1);
     df0:	e0be4317 	ldw	r2,-1780(fp)
     df4:	10800044 	addi	r2,r2,1
     df8:	10800164 	muli	r2,r2,5
     dfc:	10801944 	addi	r2,r2,101
     e00:	e0bff715 	stw	r2,-36(fp)
				line_freq.y2 = (int)(FREQPLT_ORI_Y - FREQPLT_FREQ_RES * (freq[(i+j+1)%100] - MIN_FREQ));
     e04:	e0fe4217 	ldw	r3,-1784(fp)
     e08:	e0be4317 	ldw	r2,-1780(fp)
     e0c:	1885883a 	add	r2,r3,r2
     e10:	10800044 	addi	r2,r2,1
     e14:	00c01904 	movi	r3,100
     e18:	10c7283a 	div	r3,r2,r3
     e1c:	18c01924 	muli	r3,r3,100
     e20:	10c5c83a 	sub	r2,r2,r3
     e24:	100490fa 	slli	r2,r2,3
     e28:	e17e4204 	addi	r5,fp,-1784
     e2c:	2885883a 	add	r2,r5,r2
     e30:	11002304 	addi	r4,r2,140
     e34:	20800017 	ldw	r2,0(r4)
     e38:	20c00117 	ldw	r3,4(r4)
     e3c:	000d883a 	mov	r6,zero
     e40:	01d011f4 	movhi	r7,16455
     e44:	39e00004 	addi	r7,r7,-32768
     e48:	1009883a 	mov	r4,r2
     e4c:	180b883a 	mov	r5,r3
     e50:	0008d700 	call	8d70 <__subdf3>
     e54:	1009883a 	mov	r4,r2
     e58:	180b883a 	mov	r5,r3
     e5c:	2005883a 	mov	r2,r4
     e60:	2807883a 	mov	r3,r5
     e64:	000d883a 	mov	r6,zero
     e68:	01d00d34 	movhi	r7,16436
     e6c:	1009883a 	mov	r4,r2
     e70:	180b883a 	mov	r5,r3
     e74:	00086580 	call	8658 <__muldf3>
     e78:	1009883a 	mov	r4,r2
     e7c:	180b883a 	mov	r5,r3
     e80:	2005883a 	mov	r2,r4
     e84:	2807883a 	mov	r3,r5
     e88:	100d883a 	mov	r6,r2
     e8c:	180f883a 	mov	r7,r3
     e90:	0009883a 	mov	r4,zero
     e94:	01501a74 	movhi	r5,16489
     e98:	29780004 	addi	r5,r5,-8192
     e9c:	0008d700 	call	8d70 <__subdf3>
     ea0:	1009883a 	mov	r4,r2
     ea4:	180b883a 	mov	r5,r3
     ea8:	2005883a 	mov	r2,r4
     eac:	2807883a 	mov	r3,r5
     eb0:	1009883a 	mov	r4,r2
     eb4:	180b883a 	mov	r5,r3
     eb8:	000966c0 	call	966c <__fixdfsi>
     ebc:	e0bff815 	stw	r2,-32(fp)

				//Frequency RoC plot
				line_roc.x1 = ROCPLT_ORI_X + ROCPLT_GRID_SIZE_X * j;
     ec0:	e0be4317 	ldw	r2,-1780(fp)
     ec4:	10800164 	muli	r2,r2,5
     ec8:	10801944 	addi	r2,r2,101
     ecc:	e0bff915 	stw	r2,-28(fp)
				line_roc.y1 = (int)(ROCPLT_ORI_Y - ROCPLT_ROC_RES * dfreq[(i+j)%100]);
     ed0:	e0fe4217 	ldw	r3,-1784(fp)
     ed4:	e0be4317 	ldw	r2,-1780(fp)
     ed8:	1885883a 	add	r2,r3,r2
     edc:	00c01904 	movi	r3,100
     ee0:	10c7283a 	div	r3,r2,r3
     ee4:	18c01924 	muli	r3,r3,100
     ee8:	10c5c83a 	sub	r2,r2,r3
     eec:	100490fa 	slli	r2,r2,3
     ef0:	e0fe4204 	addi	r3,fp,-1784
     ef4:	1885883a 	add	r2,r3,r2
     ef8:	1100eb04 	addi	r4,r2,940
     efc:	20800017 	ldw	r2,0(r4)
     f00:	20c00117 	ldw	r3,4(r4)
     f04:	000d883a 	mov	r6,zero
     f08:	01cff834 	movhi	r7,16352
     f0c:	1009883a 	mov	r4,r2
     f10:	180b883a 	mov	r5,r3
     f14:	00086580 	call	8658 <__muldf3>
     f18:	1009883a 	mov	r4,r2
     f1c:	180b883a 	mov	r5,r3
     f20:	2005883a 	mov	r2,r4
     f24:	2807883a 	mov	r3,r5
     f28:	100d883a 	mov	r6,r2
     f2c:	180f883a 	mov	r7,r3
     f30:	0009883a 	mov	r4,zero
     f34:	01501c34 	movhi	r5,16496
     f38:	294c0004 	addi	r5,r5,12288
     f3c:	0008d700 	call	8d70 <__subdf3>
     f40:	1009883a 	mov	r4,r2
     f44:	180b883a 	mov	r5,r3
     f48:	2005883a 	mov	r2,r4
     f4c:	2807883a 	mov	r3,r5
     f50:	1009883a 	mov	r4,r2
     f54:	180b883a 	mov	r5,r3
     f58:	000966c0 	call	966c <__fixdfsi>
     f5c:	e0bffa15 	stw	r2,-24(fp)

				line_roc.x2 = ROCPLT_ORI_X + ROCPLT_GRID_SIZE_X * (j + 1);
     f60:	e0be4317 	ldw	r2,-1780(fp)
     f64:	10800044 	addi	r2,r2,1
     f68:	10800164 	muli	r2,r2,5
     f6c:	10801944 	addi	r2,r2,101
     f70:	e0bffb15 	stw	r2,-20(fp)
				line_roc.y2 = (int)(ROCPLT_ORI_Y - ROCPLT_ROC_RES * dfreq[(i+j+1)%100]);
     f74:	e0fe4217 	ldw	r3,-1784(fp)
     f78:	e0be4317 	ldw	r2,-1780(fp)
     f7c:	1885883a 	add	r2,r3,r2
     f80:	10800044 	addi	r2,r2,1
     f84:	00c01904 	movi	r3,100
     f88:	10c7283a 	div	r3,r2,r3
     f8c:	18c01924 	muli	r3,r3,100
     f90:	10c5c83a 	sub	r2,r2,r3
     f94:	100490fa 	slli	r2,r2,3
     f98:	e17e4204 	addi	r5,fp,-1784
     f9c:	2885883a 	add	r2,r5,r2
     fa0:	1100eb04 	addi	r4,r2,940
     fa4:	20800017 	ldw	r2,0(r4)
     fa8:	20c00117 	ldw	r3,4(r4)
     fac:	000d883a 	mov	r6,zero
     fb0:	01cff834 	movhi	r7,16352
     fb4:	1009883a 	mov	r4,r2
     fb8:	180b883a 	mov	r5,r3
     fbc:	00086580 	call	8658 <__muldf3>
     fc0:	1009883a 	mov	r4,r2
     fc4:	180b883a 	mov	r5,r3
     fc8:	2005883a 	mov	r2,r4
     fcc:	2807883a 	mov	r3,r5
     fd0:	100d883a 	mov	r6,r2
     fd4:	180f883a 	mov	r7,r3
     fd8:	0009883a 	mov	r4,zero
     fdc:	01501c34 	movhi	r5,16496
     fe0:	294c0004 	addi	r5,r5,12288
     fe4:	0008d700 	call	8d70 <__subdf3>
     fe8:	1009883a 	mov	r4,r2
     fec:	180b883a 	mov	r5,r3
     ff0:	2005883a 	mov	r2,r4
     ff4:	2807883a 	mov	r3,r5
     ff8:	1009883a 	mov	r4,r2
     ffc:	180b883a 	mov	r5,r3
    1000:	000966c0 	call	966c <__fixdfsi>
    1004:	e0bffc15 	stw	r2,-16(fp)

				//Draw
				alt_up_pixel_buffer_dma_draw_line(pixel_buf, line_freq.x1, line_freq.y1, line_freq.x2, line_freq.y2, 0x3ff << 0, 0);
    1008:	e0bff517 	ldw	r2,-44(fp)
    100c:	1009883a 	mov	r4,r2
    1010:	e0bff617 	ldw	r2,-40(fp)
    1014:	100b883a 	mov	r5,r2
    1018:	e0bff717 	ldw	r2,-36(fp)
    101c:	100d883a 	mov	r6,r2
    1020:	e0bff817 	ldw	r2,-32(fp)
    1024:	1007883a 	mov	r3,r2
    1028:	d8000215 	stw	zero,8(sp)
    102c:	0080ffc4 	movi	r2,1023
    1030:	d8800115 	stw	r2,4(sp)
    1034:	d8c00015 	stw	r3,0(sp)
    1038:	300f883a 	mov	r7,r6
    103c:	280d883a 	mov	r6,r5
    1040:	200b883a 	mov	r5,r4
    1044:	e13e4417 	ldw	r4,-1776(fp)
    1048:	001e1500 	call	1e150 <alt_up_pixel_buffer_dma_draw_line>
				alt_up_pixel_buffer_dma_draw_line(pixel_buf, line_roc.x1, line_roc.y1, line_roc.x2, line_roc.y2, 0x3ff << 0, 0);
    104c:	e0bff917 	ldw	r2,-28(fp)
    1050:	1009883a 	mov	r4,r2
    1054:	e0bffa17 	ldw	r2,-24(fp)
    1058:	100b883a 	mov	r5,r2
    105c:	e0bffb17 	ldw	r2,-20(fp)
    1060:	100d883a 	mov	r6,r2
    1064:	e0bffc17 	ldw	r2,-16(fp)
    1068:	1007883a 	mov	r3,r2
    106c:	d8000215 	stw	zero,8(sp)
    1070:	0080ffc4 	movi	r2,1023
    1074:	d8800115 	stw	r2,4(sp)
    1078:	d8c00015 	stw	r3,0(sp)
    107c:	300f883a 	mov	r7,r6
    1080:	280d883a 	mov	r6,r5
    1084:	200b883a 	mov	r5,r4
    1088:	e13e4417 	ldw	r4,-1776(fp)
    108c:	001e1500 	call	1e150 <alt_up_pixel_buffer_dma_draw_line>

		//clear old graph to draw new graph
		alt_up_pixel_buffer_dma_draw_box(pixel_buf, 101, 0, 639, 199, 0, 0);
		alt_up_pixel_buffer_dma_draw_box(pixel_buf, 101, 201, 639, 299, 0, 0);

		for(j=0;j<99;++j){ //i here points to the oldest data, j loops through all the data to be drawn on VGA
    1090:	e0be4317 	ldw	r2,-1780(fp)
    1094:	10800044 	addi	r2,r2,1
    1098:	e0be4315 	stw	r2,-1780(fp)
    109c:	e0be4317 	ldw	r2,-1780(fp)
    10a0:	108018d0 	cmplti	r2,r2,99
    10a4:	103ee91e 	bne	r2,zero,c4c <__alt_data_end+0xf0000c4c>
				//Draw
				alt_up_pixel_buffer_dma_draw_line(pixel_buf, line_freq.x1, line_freq.y1, line_freq.x2, line_freq.y2, 0x3ff << 0, 0);
				alt_up_pixel_buffer_dma_draw_line(pixel_buf, line_roc.x1, line_roc.y1, line_roc.x2, line_roc.y2, 0x3ff << 0, 0);
			}
		}
		vTaskDelay(5);
    10a8:	01000144 	movi	r4,5
    10ac:	0004ffc0 	call	4ffc <vTaskDelay>
	}
    10b0:	003d3106 	br	578 <__alt_data_end+0xf0000578>

000010b4 <vISRButtonMode>:
}

/* ISR Push button mode */
void vISRButtonMode(void* context, alt_u32 id)
{
    10b4:	defffa04 	addi	sp,sp,-24
    10b8:	dfc00515 	stw	ra,20(sp)
    10bc:	df000415 	stw	fp,16(sp)
    10c0:	df000404 	addi	fp,sp,16
    10c4:	e13ffe15 	stw	r4,-8(fp)
    10c8:	e17fff15 	stw	r5,-4(fp)
	volatile int* button = (volatile int*) context;
    10cc:	e0bffe17 	ldw	r2,-8(fp)
    10d0:	e0bffc15 	stw	r2,-16(fp)
	/* Cast the context */
	(*button) = IORD_ALTERA_AVALON_PIO_DATA(PUSH_BUTTON_BASE);
    10d4:	00800134 	movhi	r2,4
    10d8:	108c3004 	addi	r2,r2,12480
    10dc:	10c00037 	ldwio	r3,0(r2)
    10e0:	e0bffc17 	ldw	r2,-16(fp)
    10e4:	10c00015 	stw	r3,0(r2)
	int btn = (int) *button;
    10e8:	e0bffc17 	ldw	r2,-16(fp)
    10ec:	10800017 	ldw	r2,0(r2)
    10f0:	e0bffd15 	stw	r2,-12(fp)

	xQueueSendFromISR(QBtn, &btn, pdFALSE);
    10f4:	d0a02c97 	ldw	r2,-32590(gp)
    10f8:	e0fffd04 	addi	r3,fp,-12
    10fc:	000f883a 	mov	r7,zero
    1100:	000d883a 	mov	r6,zero
    1104:	180b883a 	mov	r5,r3
    1108:	1009883a 	mov	r4,r2
    110c:	000426c0 	call	426c <xQueueGenericSendFromISR>

	/* Clears the edge capture register */
	IOWR_ALTERA_AVALON_PIO_EDGE_CAP(PUSH_BUTTON_BASE, 0x7);
    1110:	00c001c4 	movi	r3,7
    1114:	00800134 	movhi	r2,4
    1118:	108c3304 	addi	r2,r2,12492
    111c:	10c00035 	stwio	r3,0(r2)
	return;
    1120:	0001883a 	nop
}
    1124:	e037883a 	mov	sp,fp
    1128:	dfc00117 	ldw	ra,4(sp)
    112c:	df000017 	ldw	fp,0(sp)
    1130:	dec00204 	addi	sp,sp,8
    1134:	f800283a 	ret

00001138 <vISRKeyboard>:

/* ISR for keyboard inputs */
void vISRKeyboard(void* context, alt_u32 id)
{
    1138:	defff904 	addi	sp,sp,-28
    113c:	dfc00615 	stw	ra,24(sp)
    1140:	df000515 	stw	fp,20(sp)
    1144:	df000504 	addi	fp,sp,20
    1148:	e13ffe15 	stw	r4,-8(fp)
    114c:	e17fff15 	stw	r5,-4(fp)
	char cAscii;
	int iStatus = 0;
    1150:	e03ffb15 	stw	zero,-20(fp)
	unsigned char cKey = 0;
    1154:	e03ffc45 	stb	zero,-15(fp)
	KB_CODE_TYPE decode_mode;
	iStatus = decode_scancode (context, &decode_mode , &cKey , &cAscii);
    1158:	e13ffc04 	addi	r4,fp,-16
    115c:	e0fffc44 	addi	r3,fp,-15
    1160:	e0bffd04 	addi	r2,fp,-12
    1164:	200f883a 	mov	r7,r4
    1168:	180d883a 	mov	r6,r3
    116c:	100b883a 	mov	r5,r2
    1170:	e13ffe17 	ldw	r4,-8(fp)
    1174:	001e6c40 	call	1e6c4 <decode_scancode>
    1178:	e0bffb15 	stw	r2,-20(fp)

	/* If keyboard press has been read */
	if (!iStatus)
    117c:	e0bffb17 	ldw	r2,-20(fp)
    1180:	1000131e 	bne	r2,zero,11d0 <vISRKeyboard+0x98>
	{
		if (cKey == 0x5A){
    1184:	e0bffc43 	ldbu	r2,-15(fp)
    1188:	10803fcc 	andi	r2,r2,255
    118c:	10801698 	cmpnei	r2,r2,90
    1190:	1000021e 	bne	r2,zero,119c <vISRKeyboard+0x64>
			cAscii = 0x0D;
    1194:	00800344 	movi	r2,13
    1198:	e0bffc05 	stb	r2,-16(fp)
		}
		if (decode_mode != KB_LONG_BINARY_MAKE_CODE && decode_mode != KB_BREAK_CODE){
    119c:	e0bffd17 	ldw	r2,-12(fp)
    11a0:	108000e0 	cmpeqi	r2,r2,3
    11a4:	10000a1e 	bne	r2,zero,11d0 <vISRKeyboard+0x98>
    11a8:	e0bffd17 	ldw	r2,-12(fp)
    11ac:	10800120 	cmpeqi	r2,r2,4
    11b0:	1000071e 	bne	r2,zero,11d0 <vISRKeyboard+0x98>
			xQueueSendFromISR(Q_keyboard, &cAscii, 0);
    11b4:	d0a02a97 	ldw	r2,-32598(gp)
    11b8:	e0fffc04 	addi	r3,fp,-16
    11bc:	000f883a 	mov	r7,zero
    11c0:	000d883a 	mov	r6,zero
    11c4:	180b883a 	mov	r5,r3
    11c8:	1009883a 	mov	r4,r2
    11cc:	000426c0 	call	426c <xQueueGenericSendFromISR>
		}
	}
}
    11d0:	0001883a 	nop
    11d4:	e037883a 	mov	sp,fp
    11d8:	dfc00117 	ldw	ra,4(sp)
    11dc:	df000017 	ldw	fp,0(sp)
    11e0:	dec00204 	addi	sp,sp,8
    11e4:	f800283a 	ret

000011e8 <vTaskLCDMode>:

/* Shows what the current mode is through LCD Display on push button press*/
void vTaskLCDMode(void *pvParameters)
{
    11e8:	defffc04 	addi	sp,sp,-16
    11ec:	dfc00315 	stw	ra,12(sp)
    11f0:	df000215 	stw	fp,8(sp)
    11f4:	df000204 	addi	fp,sp,8
    11f8:	e13fff15 	stw	r4,-4(fp)
	int iBtn;
	lcd = fopen(CHARACTER_LCD_NAME, "w");
    11fc:	01420034 	movhi	r5,2048
    1200:	29406304 	addi	r5,r5,396
    1204:	01020034 	movhi	r4,2048
    1208:	21006404 	addi	r4,r4,400
    120c:	000a2c80 	call	a2c8 <fopen>
    1210:	d0a02995 	stw	r2,-32602(gp)
	fprintf (lcd, "NORMAL MODE\n");
    1214:	d0a02997 	ldw	r2,-32602(gp)
    1218:	100f883a 	mov	r7,r2
    121c:	01800304 	movi	r6,12
    1220:	01400044 	movi	r5,1
    1224:	01020034 	movhi	r4,2048
    1228:	21006904 	addi	r4,r4,420
    122c:	000ae900 	call	ae90 <fwrite>
	printf("iMode: %d\n", iMode);
    1230:	d0a02497 	ldw	r2,-32622(gp)
    1234:	100b883a 	mov	r5,r2
    1238:	01020034 	movhi	r4,2048
    123c:	21006d04 	addi	r4,r4,436
    1240:	000bc080 	call	bc08 <printf>
	fclose(lcd);
    1244:	d0a02997 	ldw	r2,-32602(gp)
    1248:	1009883a 	mov	r4,r2
    124c:	0009b780 	call	9b78 <fclose>

	while (1)
	{
		if (xQueueReceiveFromISR(QBtn, &iBtn, portMAX_DELAY) == pdTRUE)
    1250:	d0a02c97 	ldw	r2,-32590(gp)
    1254:	01bfffc4 	movi	r6,-1
    1258:	e17ffe04 	addi	r5,fp,-8
    125c:	1009883a 	mov	r4,r2
    1260:	000462c0 	call	462c <xQueueReceiveFromISR>
    1264:	10800058 	cmpnei	r2,r2,1
    1268:	10002e1e 	bne	r2,zero,1324 <vTaskLCDMode+0x13c>
		{
			iMode = !iMode;
    126c:	d0a02497 	ldw	r2,-32622(gp)
    1270:	1005003a 	cmpeq	r2,r2,zero
    1274:	10803fcc 	andi	r2,r2,255
    1278:	d0a02495 	stw	r2,-32622(gp)
			lcd = fopen(CHARACTER_LCD_NAME, "w");
    127c:	01420034 	movhi	r5,2048
    1280:	29406304 	addi	r5,r5,396
    1284:	01020034 	movhi	r4,2048
    1288:	21006404 	addi	r4,r4,400
    128c:	000a2c80 	call	a2c8 <fopen>
    1290:	d0a02995 	stw	r2,-32602(gp)
			if (lcd != NULL)
    1294:	d0a02997 	ldw	r2,-32602(gp)
    1298:	10001f26 	beq	r2,zero,1318 <vTaskLCDMode+0x130>
			{
				fprintf(lcd, "%c%s", ESC, CLEAR_LCD_STRING);
    129c:	d0a02997 	ldw	r2,-32602(gp)
    12a0:	01c20034 	movhi	r7,2048
    12a4:	39c07004 	addi	r7,r7,448
    12a8:	018006c4 	movi	r6,27
    12ac:	01420034 	movhi	r5,2048
    12b0:	29407104 	addi	r5,r5,452
    12b4:	1009883a 	mov	r4,r2
    12b8:	000a3080 	call	a308 <fprintf>

				if (iMode)
    12bc:	d0a02497 	ldw	r2,-32622(gp)
    12c0:	10000b26 	beq	r2,zero,12f0 <vTaskLCDMode+0x108>
				{
					printf("maint mode\n");
    12c4:	01020034 	movhi	r4,2048
    12c8:	21007304 	addi	r4,r4,460
    12cc:	000bd040 	call	bd04 <puts>
					fprintf (lcd, "MAINTENANCE MODE\n");
    12d0:	d0a02997 	ldw	r2,-32602(gp)
    12d4:	100f883a 	mov	r7,r2
    12d8:	01800444 	movi	r6,17
    12dc:	01400044 	movi	r5,1
    12e0:	01020034 	movhi	r4,2048
    12e4:	21007604 	addi	r4,r4,472
    12e8:	000ae900 	call	ae90 <fwrite>
    12ec:	00000a06 	br	1318 <vTaskLCDMode+0x130>
				} else
				{
					printf("normal mode\n");
    12f0:	01020034 	movhi	r4,2048
    12f4:	21007b04 	addi	r4,r4,492
    12f8:	000bd040 	call	bd04 <puts>
					fprintf(lcd, "NORMAL MODE\n");
    12fc:	d0a02997 	ldw	r2,-32602(gp)
    1300:	100f883a 	mov	r7,r2
    1304:	01800304 	movi	r6,12
    1308:	01400044 	movi	r5,1
    130c:	01020034 	movhi	r4,2048
    1310:	21006904 	addi	r4,r4,420
    1314:	000ae900 	call	ae90 <fwrite>
				}
			}
			fclose(lcd);
    1318:	d0a02997 	ldw	r2,-32602(gp)
    131c:	1009883a 	mov	r4,r2
    1320:	0009b780 	call	9b78 <fclose>
		}
		vTaskDelay(5);
    1324:	01000144 	movi	r4,5
    1328:	0004ffc0 	call	4ffc <vTaskDelay>
	}
    132c:	003fc806 	br	1250 <__alt_data_end+0xf0001250>

00001330 <vTaskKeyboardHandler>:
}

/* Handles the inputs of the keyboard, changes the thresholds of the roc and frequency */
void vTaskKeyboardHandler (void * pvParameters)
{
    1330:	defff704 	addi	sp,sp,-36
    1334:	dfc00815 	stw	ra,32(sp)
    1338:	df000715 	stw	fp,28(sp)
    133c:	df000704 	addi	fp,sp,28
    1340:	e13fff15 	stw	r4,-4(fp)
	char cKeyInput;
	unsigned int val;
	unsigned int inputs[2] = {0, 0};
    1344:	e03ffd15 	stw	zero,-12(fp)
    1348:	e03ffe15 	stw	zero,-8(fp)
	int i = 0;
    134c:	e03ffa15 	stw	zero,-24(fp)

	while (1){
		while(uxQueueMessagesWaitingFromISR(Q_keyboard) != 0){
    1350:	00009606 	br	15ac <vTaskKeyboardHandler+0x27c>
			xQueueReceiveFromISR(Q_keyboard, (void*) &cKeyInput, 0);
    1354:	d0a02a97 	ldw	r2,-32598(gp)
    1358:	e0fffc04 	addi	r3,fp,-16
    135c:	000d883a 	mov	r6,zero
    1360:	180b883a 	mov	r5,r3
    1364:	1009883a 	mov	r4,r2
    1368:	000462c0 	call	462c <xQueueReceiveFromISR>
			printf("print: %d \n", cKeyInput-0x30);
    136c:	e0bffc03 	ldbu	r2,-16(fp)
    1370:	10803fcc 	andi	r2,r2,255
    1374:	1080201c 	xori	r2,r2,128
    1378:	10bfe004 	addi	r2,r2,-128
    137c:	10bff404 	addi	r2,r2,-48
    1380:	100b883a 	mov	r5,r2
    1384:	01020034 	movhi	r4,2048
    1388:	21007e04 	addi	r4,r4,504
    138c:	000bc080 	call	bc08 <printf>

			/*check if the input number is valid*/
			if (cKeyInput >= 0x30 && cKeyInput <=0x39){
    1390:	e0bffc03 	ldbu	r2,-16(fp)
    1394:	10803fcc 	andi	r2,r2,255
    1398:	1080201c 	xori	r2,r2,128
    139c:	10bfe004 	addi	r2,r2,-128
    13a0:	10800c10 	cmplti	r2,r2,48
    13a4:	10001e1e 	bne	r2,zero,1420 <vTaskKeyboardHandler+0xf0>
    13a8:	e0bffc03 	ldbu	r2,-16(fp)
    13ac:	10803fcc 	andi	r2,r2,255
    13b0:	1080201c 	xori	r2,r2,128
    13b4:	10bfe004 	addi	r2,r2,-128
    13b8:	10800e88 	cmpgei	r2,r2,58
    13bc:	1000181e 	bne	r2,zero,1420 <vTaskKeyboardHandler+0xf0>
				val = cKeyInput-0x30;
    13c0:	e0bffc03 	ldbu	r2,-16(fp)
    13c4:	10803fcc 	andi	r2,r2,255
    13c8:	1080201c 	xori	r2,r2,128
    13cc:	10bfe004 	addi	r2,r2,-128
    13d0:	10bff404 	addi	r2,r2,-48
    13d4:	e0bffb15 	stw	r2,-20(fp)
				inputs[i] = inputs[i]*10 + val;
    13d8:	e0bffa17 	ldw	r2,-24(fp)
    13dc:	1085883a 	add	r2,r2,r2
    13e0:	1085883a 	add	r2,r2,r2
    13e4:	e0fffa04 	addi	r3,fp,-24
    13e8:	1885883a 	add	r2,r3,r2
    13ec:	10800304 	addi	r2,r2,12
    13f0:	10800017 	ldw	r2,0(r2)
    13f4:	10c002a4 	muli	r3,r2,10
    13f8:	e0bffb17 	ldw	r2,-20(fp)
    13fc:	1887883a 	add	r3,r3,r2
    1400:	e0bffa17 	ldw	r2,-24(fp)
    1404:	1085883a 	add	r2,r2,r2
    1408:	1085883a 	add	r2,r2,r2
    140c:	e13ffa04 	addi	r4,fp,-24
    1410:	2085883a 	add	r2,r4,r2
    1414:	10800304 	addi	r2,r2,12
    1418:	10c00015 	stw	r3,0(r2)
    141c:	00006306 	br	15ac <vTaskKeyboardHandler+0x27c>
			}

			/* check the keyboard input is comma*/
			else if (cKeyInput == 0x2C)
    1420:	e0bffc03 	ldbu	r2,-16(fp)
    1424:	10803fcc 	andi	r2,r2,255
    1428:	1080201c 	xori	r2,r2,128
    142c:	10bfe004 	addi	r2,r2,-128
    1430:	10800b18 	cmpnei	r2,r2,44
    1434:	10002f1e 	bne	r2,zero,14f4 <vTaskKeyboardHandler+0x1c4>
			{
				i++;
    1438:	e0bffa17 	ldw	r2,-24(fp)
    143c:	10800044 	addi	r2,r2,1
    1440:	e0bffa15 	stw	r2,-24(fp)
				if (i >= 2){
    1444:	e0bffa17 	ldw	r2,-24(fp)
    1448:	10800090 	cmplti	r2,r2,2
    144c:	1000571e 	bne	r2,zero,15ac <vTaskKeyboardHandler+0x27c>
					xSemaphoreTake(semRoc, portMAX_DELAY);
    1450:	d0a03197 	ldw	r2,-32570(gp)
    1454:	000f883a 	mov	r7,zero
    1458:	01bfffc4 	movi	r6,-1
    145c:	000b883a 	mov	r5,zero
    1460:	1009883a 	mov	r4,r2
    1464:	000441c0 	call	441c <xQueueGenericReceive>
					dThresFreq = inputs[0];
    1468:	e0bffd17 	ldw	r2,-12(fp)
    146c:	1009883a 	mov	r4,r2
    1470:	00097c80 	call	97c8 <__floatunsidf>
    1474:	1009883a 	mov	r4,r2
    1478:	180b883a 	mov	r5,r3
    147c:	d1200195 	stw	r4,-32762(gp)
    1480:	d1600295 	stw	r5,-32758(gp)
					dThresRoc = inputs[1];
    1484:	e0bffe17 	ldw	r2,-8(fp)
    1488:	1009883a 	mov	r4,r2
    148c:	00097c80 	call	97c8 <__floatunsidf>
    1490:	1009883a 	mov	r4,r2
    1494:	180b883a 	mov	r5,r3
    1498:	d1200395 	stw	r4,-32754(gp)
    149c:	d1600495 	stw	r5,-32750(gp)
					inputs[0] = 0;
    14a0:	e03ffd15 	stw	zero,-12(fp)
					inputs[1] = 0;
    14a4:	e03ffe15 	stw	zero,-8(fp)
					i = 0;
    14a8:	e03ffa15 	stw	zero,-24(fp)
					printf("New Value: %f,  %f\n", dThresFreq, dThresRoc);
    14ac:	d2200197 	ldw	r8,-32762(gp)
    14b0:	d2600297 	ldw	r9,-32758(gp)
    14b4:	d0a00397 	ldw	r2,-32754(gp)
    14b8:	d0e00497 	ldw	r3,-32750(gp)
    14bc:	d8c00015 	stw	r3,0(sp)
    14c0:	100f883a 	mov	r7,r2
    14c4:	400b883a 	mov	r5,r8
    14c8:	480d883a 	mov	r6,r9
    14cc:	01020034 	movhi	r4,2048
    14d0:	21008104 	addi	r4,r4,516
    14d4:	000bc080 	call	bc08 <printf>
					xSemaphoreGive(semRoc);
    14d8:	d0a03197 	ldw	r2,-32570(gp)
    14dc:	000f883a 	mov	r7,zero
    14e0:	000d883a 	mov	r6,zero
    14e4:	000b883a 	mov	r5,zero
    14e8:	1009883a 	mov	r4,r2
    14ec:	00040cc0 	call	40cc <xQueueGenericSend>
    14f0:	00002e06 	br	15ac <vTaskKeyboardHandler+0x27c>

				}
			}
			/* check if the keyboard input is enter*/
			else if (cKeyInput == 0x0D){
    14f4:	e0bffc03 	ldbu	r2,-16(fp)
    14f8:	10803fcc 	andi	r2,r2,255
    14fc:	1080201c 	xori	r2,r2,128
    1500:	10bfe004 	addi	r2,r2,-128
    1504:	10800358 	cmpnei	r2,r2,13
    1508:	1000281e 	bne	r2,zero,15ac <vTaskKeyboardHandler+0x27c>
				xSemaphoreTake(semRoc, portMAX_DELAY);
    150c:	d0a03197 	ldw	r2,-32570(gp)
    1510:	000f883a 	mov	r7,zero
    1514:	01bfffc4 	movi	r6,-1
    1518:	000b883a 	mov	r5,zero
    151c:	1009883a 	mov	r4,r2
    1520:	000441c0 	call	441c <xQueueGenericReceive>
				dThresFreq = inputs[0];
    1524:	e0bffd17 	ldw	r2,-12(fp)
    1528:	1009883a 	mov	r4,r2
    152c:	00097c80 	call	97c8 <__floatunsidf>
    1530:	1009883a 	mov	r4,r2
    1534:	180b883a 	mov	r5,r3
    1538:	d1200195 	stw	r4,-32762(gp)
    153c:	d1600295 	stw	r5,-32758(gp)
				dThresRoc = inputs[1];
    1540:	e0bffe17 	ldw	r2,-8(fp)
    1544:	1009883a 	mov	r4,r2
    1548:	00097c80 	call	97c8 <__floatunsidf>
    154c:	1009883a 	mov	r4,r2
    1550:	180b883a 	mov	r5,r3
    1554:	d1200395 	stw	r4,-32754(gp)
    1558:	d1600495 	stw	r5,-32750(gp)
				inputs[0] = 0;
    155c:	e03ffd15 	stw	zero,-12(fp)
				inputs[1] = 0;
    1560:	e03ffe15 	stw	zero,-8(fp)
				i = 0;
    1564:	e03ffa15 	stw	zero,-24(fp)
				printf("New Value: %f,  %f\n", dThresFreq, dThresRoc);
    1568:	d2200197 	ldw	r8,-32762(gp)
    156c:	d2600297 	ldw	r9,-32758(gp)
    1570:	d0a00397 	ldw	r2,-32754(gp)
    1574:	d0e00497 	ldw	r3,-32750(gp)
    1578:	d8c00015 	stw	r3,0(sp)
    157c:	100f883a 	mov	r7,r2
    1580:	400b883a 	mov	r5,r8
    1584:	480d883a 	mov	r6,r9
    1588:	01020034 	movhi	r4,2048
    158c:	21008104 	addi	r4,r4,516
    1590:	000bc080 	call	bc08 <printf>
				xSemaphoreGive(semRoc);
    1594:	d0a03197 	ldw	r2,-32570(gp)
    1598:	000f883a 	mov	r7,zero
    159c:	000d883a 	mov	r6,zero
    15a0:	000b883a 	mov	r5,zero
    15a4:	1009883a 	mov	r4,r2
    15a8:	00040cc0 	call	40cc <xQueueGenericSend>
	unsigned int val;
	unsigned int inputs[2] = {0, 0};
	int i = 0;

	while (1){
		while(uxQueueMessagesWaitingFromISR(Q_keyboard) != 0){
    15ac:	d0a02a97 	ldw	r2,-32598(gp)
    15b0:	1009883a 	mov	r4,r2
    15b4:	00048140 	call	4814 <uxQueueMessagesWaitingFromISR>
    15b8:	103f661e 	bne	r2,zero,1354 <__alt_data_end+0xf0001354>
				i = 0;
				printf("New Value: %f,  %f\n", dThresFreq, dThresRoc);
				xSemaphoreGive(semRoc);
			}
		}
		vTaskDelay(5);
    15bc:	01000144 	movi	r4,5
    15c0:	0004ffc0 	call	4ffc <vTaskDelay>
	}
    15c4:	003f6206 	br	1350 <__alt_data_end+0xf0001350>

000015c8 <vISRFreqRelay>:
	return;
}

/* Reads incoming frequency from ISR*/
void vISRFreqRelay(void* context, alt_u32 id)
{
    15c8:	defffa04 	addi	sp,sp,-24
    15cc:	dfc00515 	stw	ra,20(sp)
    15d0:	df000415 	stw	fp,16(sp)
    15d4:	df000404 	addi	fp,sp,16
    15d8:	e13ffe15 	stw	r4,-8(fp)
    15dc:	e17fff15 	stw	r5,-4(fp)
	double dInFreq = SAMPLING_FREQ / (double) IORD(FREQUENCY_ANALYSER_BASE, 0);
    15e0:	00800134 	movhi	r2,4
    15e4:	108c4004 	addi	r2,r2,12544
    15e8:	10800037 	ldwio	r2,0(r2)
    15ec:	1009883a 	mov	r4,r2
    15f0:	00096ec0 	call	96ec <__floatsidf>
    15f4:	1009883a 	mov	r4,r2
    15f8:	180b883a 	mov	r5,r3
    15fc:	200d883a 	mov	r6,r4
    1600:	280f883a 	mov	r7,r5
    1604:	0009883a 	mov	r4,zero
    1608:	015033f4 	movhi	r5,16591
    160c:	29500004 	addi	r5,r5,16384
    1610:	0007ba00 	call	7ba0 <__divdf3>
    1614:	1009883a 	mov	r4,r2
    1618:	180b883a 	mov	r5,r3
    161c:	2005883a 	mov	r2,r4
    1620:	2807883a 	mov	r3,r5
    1624:	e0bffc15 	stw	r2,-16(fp)
    1628:	e0fffd15 	stw	r3,-12(fp)
	/* Send calculation tasks */
	xQueueSendToBackFromISR(QFreqData, &dInFreq, pdFALSE);
    162c:	d0a03897 	ldw	r2,-32542(gp)
    1630:	000f883a 	mov	r7,zero
    1634:	000d883a 	mov	r6,zero
    1638:	e17ffc04 	addi	r5,fp,-16
    163c:	1009883a 	mov	r4,r2
    1640:	000426c0 	call	426c <xQueueGenericSendFromISR>
	return;
    1644:	0001883a 	nop
}
    1648:	e037883a 	mov	sp,fp
    164c:	dfc00117 	ldw	ra,4(sp)
    1650:	df000017 	ldw	fp,0(sp)
    1654:	dec00204 	addi	sp,sp,8
    1658:	f800283a 	ret

0000165c <vTaskSwitchCon>:

/* Switch controller task*/
void vTaskSwitchCon(void *pvParameters)
{
    165c:	defffc04 	addi	sp,sp,-16
    1660:	dfc00315 	stw	ra,12(sp)
    1664:	df000215 	stw	fp,8(sp)
    1668:	df000204 	addi	fp,sp,8
    166c:	e13fff15 	stw	r4,-4(fp)
	unsigned int iCurrentLoad;
	while(1){
		iCurrentLoad = IORD_ALTERA_AVALON_PIO_DATA(SLIDE_SWITCH_BASE) & 0x1F; //read slide switches
    1670:	00800134 	movhi	r2,4
    1674:	108c2c04 	addi	r2,r2,12464
    1678:	10800037 	ldwio	r2,0(r2)
    167c:	108007cc 	andi	r2,r2,31
    1680:	e0bffe15 	stw	r2,-8(fp)
		xQueueSend(QSwitch, &iCurrentLoad, portMAX_DELAY);
    1684:	d0a02f97 	ldw	r2,-32578(gp)
    1688:	000f883a 	mov	r7,zero
    168c:	01bfffc4 	movi	r6,-1
    1690:	e17ffe04 	addi	r5,fp,-8
    1694:	1009883a 	mov	r4,r2
    1698:	00040cc0 	call	40cc <xQueueGenericSend>
		vTaskDelay(5);
    169c:	01000144 	movi	r4,5
    16a0:	0004ffc0 	call	4ffc <vTaskDelay>
	}
    16a4:	003ff206 	br	1670 <__alt_data_end+0xf0001670>

000016a8 <vTaskLoadManager>:
}

/* Load manager task*/
void vTaskLoadManager(void * pvParameters)
{
    16a8:	deffe504 	addi	sp,sp,-108
    16ac:	dfc01a15 	stw	ra,104(sp)
    16b0:	df001915 	stw	fp,100(sp)
    16b4:	dcc01815 	stw	r19,96(sp)
    16b8:	dc801715 	stw	r18,92(sp)
    16bc:	dc401615 	stw	r17,88(sp)
    16c0:	dc001515 	stw	r16,84(sp)
    16c4:	df001904 	addi	fp,sp,100
    16c8:	e13ffb15 	stw	r4,-20(fp)
	int iStable = 1;
    16cc:	00800044 	movi	r2,1
    16d0:	e0bff215 	stw	r2,-56(fp)
	int iFlagShed = 0;
    16d4:	e03fe815 	stw	zero,-96(fp)
	int iFlagAdd = 0;
    16d8:	e03fe915 	stw	zero,-92(fp)
	int iTimerActive = 0;
    16dc:	e03fea15 	stw	zero,-88(fp)
	int iManagingLoad = 0;
    16e0:	e03feb15 	stw	zero,-84(fp)
	unsigned int iCurrentLoad;

	double dInFreq;
	double dFreqPrev = 50.0;
    16e4:	e03fec15 	stw	zero,-80(fp)
    16e8:	00901274 	movhi	r2,16457
    16ec:	e0bfed15 	stw	r2,-76(fp)
	double dRocVal = 0.0;
    16f0:	e03fef15 	stw	zero,-68(fp)
    16f4:	e03ff015 	stw	zero,-64(fp)

	sLoadStat sLoadStat;
	sHandledLoadStat sHandledLoadStat;

	sLoadStat.iSheddedLoad = 0x00;
    16f8:	e03ff715 	stw	zero,-36(fp)
	sLoadStat.iUnSheddedLoad = 0x00;
    16fc:	e03ff815 	stw	zero,-32(fp)
	// switching off loads is allowed
	// Once load managing is finished add load

	while(1)
	{
		if(xQueueReceiveFromISR(QFreqData, &dInFreq, portMAX_DELAY) == pdTRUE)
    1700:	d0a03897 	ldw	r2,-32542(gp)
    1704:	e0fff404 	addi	r3,fp,-48
    1708:	01bfffc4 	movi	r6,-1
    170c:	180b883a 	mov	r5,r3
    1710:	1009883a 	mov	r4,r2
    1714:	000462c0 	call	462c <xQueueReceiveFromISR>
    1718:	10800058 	cmpnei	r2,r2,1
    171c:	10019a1e 	bne	r2,zero,1d88 <vTaskLoadManager+0x6e0>
		{
			xSemaphoreTake(semRoc, portMAX_DELAY);
    1720:	d0a03197 	ldw	r2,-32570(gp)
    1724:	000f883a 	mov	r7,zero
    1728:	01bfffc4 	movi	r6,-1
    172c:	000b883a 	mov	r5,zero
    1730:	1009883a 	mov	r4,r2
    1734:	000441c0 	call	441c <xQueueGenericReceive>

			//Calculate Rate of Change Value
			dRocVal = ((dInFreq-dFreqPrev)* SAMPLING_FREQ) / (double) IORD(FREQUENCY_ANALYSER_BASE, 0);
    1738:	e0bff417 	ldw	r2,-48(fp)
    173c:	e0fff517 	ldw	r3,-44(fp)
    1740:	e1bfec17 	ldw	r6,-80(fp)
    1744:	e1ffed17 	ldw	r7,-76(fp)
    1748:	1009883a 	mov	r4,r2
    174c:	180b883a 	mov	r5,r3
    1750:	0008d700 	call	8d70 <__subdf3>
    1754:	1009883a 	mov	r4,r2
    1758:	180b883a 	mov	r5,r3
    175c:	2005883a 	mov	r2,r4
    1760:	2807883a 	mov	r3,r5
    1764:	000d883a 	mov	r6,zero
    1768:	01d033f4 	movhi	r7,16591
    176c:	39d00004 	addi	r7,r7,16384
    1770:	1009883a 	mov	r4,r2
    1774:	180b883a 	mov	r5,r3
    1778:	00086580 	call	8658 <__muldf3>
    177c:	1009883a 	mov	r4,r2
    1780:	180b883a 	mov	r5,r3
    1784:	2025883a 	mov	r18,r4
    1788:	2827883a 	mov	r19,r5
    178c:	00800134 	movhi	r2,4
    1790:	108c4004 	addi	r2,r2,12544
    1794:	10800037 	ldwio	r2,0(r2)
    1798:	1009883a 	mov	r4,r2
    179c:	00096ec0 	call	96ec <__floatsidf>
    17a0:	1009883a 	mov	r4,r2
    17a4:	180b883a 	mov	r5,r3
    17a8:	200d883a 	mov	r6,r4
    17ac:	280f883a 	mov	r7,r5
    17b0:	9009883a 	mov	r4,r18
    17b4:	980b883a 	mov	r5,r19
    17b8:	0007ba00 	call	7ba0 <__divdf3>
    17bc:	1009883a 	mov	r4,r2
    17c0:	180b883a 	mov	r5,r3
    17c4:	e13fef15 	stw	r4,-68(fp)
    17c8:	e17ff015 	stw	r5,-64(fp)
			dFreqPrev = dInFreq;
    17cc:	e0bff417 	ldw	r2,-48(fp)
    17d0:	e0bfec15 	stw	r2,-80(fp)
    17d4:	e0bff517 	ldw	r2,-44(fp)
    17d8:	e0bfed15 	stw	r2,-76(fp)
			xSemaphoreGive(semRoc);
    17dc:	d0a03197 	ldw	r2,-32570(gp)
    17e0:	000f883a 	mov	r7,zero
    17e4:	000d883a 	mov	r6,zero
    17e8:	000b883a 	mov	r5,zero
    17ec:	1009883a 	mov	r4,r2
    17f0:	00040cc0 	call	40cc <xQueueGenericSend>

			if(dInFreq < dThresFreq || fabs(dRocVal) > dThresRoc)
    17f4:	e0bff417 	ldw	r2,-48(fp)
    17f8:	e0fff517 	ldw	r3,-44(fp)
    17fc:	d1200197 	ldw	r4,-32762(gp)
    1800:	d1600297 	ldw	r5,-32758(gp)
    1804:	200d883a 	mov	r6,r4
    1808:	280f883a 	mov	r7,r5
    180c:	1009883a 	mov	r4,r2
    1810:	180b883a 	mov	r5,r3
    1814:	00085640 	call	8564 <__ledf2>
    1818:	10000d16 	blt	r2,zero,1850 <vTaskLoadManager+0x1a8>
    181c:	e43fef17 	ldw	r16,-68(fp)
    1820:	e0fff017 	ldw	r3,-64(fp)
    1824:	00a00034 	movhi	r2,32768
    1828:	10bfffc4 	addi	r2,r2,-1
    182c:	18a2703a 	and	r17,r3,r2
    1830:	d0a00397 	ldw	r2,-32754(gp)
    1834:	d0e00497 	ldw	r3,-32750(gp)
    1838:	100d883a 	mov	r6,r2
    183c:	180f883a 	mov	r7,r3
    1840:	8009883a 	mov	r4,r16
    1844:	880b883a 	mov	r5,r17
    1848:	00084880 	call	8488 <__gedf2>
    184c:	00800d0e 	bge	zero,r2,1884 <vTaskLoadManager+0x1dc>
			{
				iStable = 0;
    1850:	e03ff215 	stw	zero,-56(fp)
				if(responseTimeFlag == 0)
    1854:	d0a01f97 	ldw	r2,-32642(gp)
    1858:	10000c1e 	bne	r2,zero,188c <vTaskLoadManager+0x1e4>
				{
					startTime = xTaskGetTickCount();
    185c:	00052cc0 	call	52cc <xTaskGetTickCount>
    1860:	d0a01d95 	stw	r2,-32650(gp)
					printf("time taken: %u\n", startTime);
    1864:	d0a01d97 	ldw	r2,-32650(gp)
    1868:	100b883a 	mov	r5,r2
    186c:	01020034 	movhi	r4,2048
    1870:	21008604 	addi	r4,r4,536
    1874:	000bc080 	call	bc08 <printf>
					responseTimeFlag = 1;
    1878:	00800044 	movi	r2,1
    187c:	d0a01f95 	stw	r2,-32642(gp)
			xSemaphoreGive(semRoc);

			if(dInFreq < dThresFreq || fabs(dRocVal) > dThresRoc)
			{
				iStable = 0;
				if(responseTimeFlag == 0)
    1880:	00000206 	br	188c <vTaskLoadManager+0x1e4>
					responseTimeFlag = 1;
				}
			}
			else
			{
				iStable = 1;
    1884:	00800044 	movi	r2,1
    1888:	e0bff215 	stw	r2,-56(fp)
			}

			if(xQueueReceive(QSwitch, &iCurrentLoad, 0) == pdTRUE)
    188c:	d0a02f97 	ldw	r2,-32578(gp)
    1890:	e0fff304 	addi	r3,fp,-52
    1894:	000f883a 	mov	r7,zero
    1898:	000d883a 	mov	r6,zero
    189c:	180b883a 	mov	r5,r3
    18a0:	1009883a 	mov	r4,r2
    18a4:	000441c0 	call	441c <xQueueGenericReceive>
    18a8:	10800058 	cmpnei	r2,r2,1
    18ac:	1000121e 	bne	r2,zero,18f8 <vTaskLoadManager+0x250>
			{
				sLoadStat.iCurrentLoad = iCurrentLoad;
    18b0:	e0bff317 	ldw	r2,-52(fp)
    18b4:	e0bff615 	stw	r2,-40(fp)
				sLoadStat.iSheddedLoad &= iCurrentLoad;
    18b8:	e0fff717 	ldw	r3,-36(fp)
    18bc:	e0bff317 	ldw	r2,-52(fp)
    18c0:	1884703a 	and	r2,r3,r2
    18c4:	e0bff715 	stw	r2,-36(fp)
				sLoadStat.iUnSheddedLoad &= iCurrentLoad;
    18c8:	e0fff817 	ldw	r3,-32(fp)
    18cc:	e0bff317 	ldw	r2,-52(fp)
    18d0:	1884703a 	and	r2,r3,r2
    18d4:	e0bff815 	stw	r2,-32(fp)
				sHandledLoadStat.iSheddedLoad &= iCurrentLoad;
    18d8:	e0fff917 	ldw	r3,-28(fp)
    18dc:	e0bff317 	ldw	r2,-52(fp)
    18e0:	1884703a 	and	r2,r3,r2
    18e4:	e0bff915 	stw	r2,-28(fp)
				sHandledLoadStat.iUnSheddedLoad &= iCurrentLoad;
    18e8:	e0fffa17 	ldw	r3,-24(fp)
    18ec:	e0bff317 	ldw	r2,-52(fp)
    18f0:	1884703a 	and	r2,r3,r2
    18f4:	e0bffa15 	stw	r2,-24(fp)

			}

			xQueueSend(QStability, &iStable, 0);
    18f8:	d0a03297 	ldw	r2,-32566(gp)
    18fc:	e0fff204 	addi	r3,fp,-56
    1900:	000f883a 	mov	r7,zero
    1904:	000d883a 	mov	r6,zero
    1908:	180b883a 	mov	r5,r3
    190c:	1009883a 	mov	r4,r2
    1910:	00040cc0 	call	40cc <xQueueGenericSend>
			xQueueSendToBack(QFreqDataVGA, &dInFreq, 0);
    1914:	d0a03797 	ldw	r2,-32546(gp)
    1918:	e0fff404 	addi	r3,fp,-48
    191c:	000f883a 	mov	r7,zero
    1920:	000d883a 	mov	r6,zero
    1924:	180b883a 	mov	r5,r3
    1928:	1009883a 	mov	r4,r2
    192c:	00040cc0 	call	40cc <xQueueGenericSend>

			if(sLoadStat.iCurrentLoad != 0 && iMode == normal){
    1930:	e0bff617 	ldw	r2,-40(fp)
    1934:	10009426 	beq	r2,zero,1b88 <vTaskLoadManager+0x4e0>
    1938:	d0a02497 	ldw	r2,-32622(gp)
    193c:	1000921e 	bne	r2,zero,1b88 <vTaskLoadManager+0x4e0>
				If timer has finished (from unstable) and has become stable - reset timer
					 If a load was shed - add load
				 */

				// If timer is active (from stable) and has become unstable - reset timer - shed load
				if(iTimerFlag && !iTimerFin && !iStable){
    1940:	d0a02597 	ldw	r2,-32618(gp)
    1944:	10001726 	beq	r2,zero,19a4 <vTaskLoadManager+0x2fc>
    1948:	d0a02697 	ldw	r2,-32614(gp)
    194c:	1000151e 	bne	r2,zero,19a4 <vTaskLoadManager+0x2fc>
    1950:	e0bff217 	ldw	r2,-56(fp)
    1954:	1000131e 	bne	r2,zero,19a4 <vTaskLoadManager+0x2fc>
					xSemaphoreTake(semTimer, portMAX_DELAY);
    1958:	d0a02897 	ldw	r2,-32606(gp)
    195c:	000f883a 	mov	r7,zero
    1960:	01bfffc4 	movi	r6,-1
    1964:	000b883a 	mov	r5,zero
    1968:	1009883a 	mov	r4,r2
    196c:	000441c0 	call	441c <xQueueGenericReceive>
					iTimerFlag = 1;
    1970:	00800044 	movi	r2,1
    1974:	d0a02595 	stw	r2,-32618(gp)
					iFlagShed = 1;
    1978:	00800044 	movi	r2,1
    197c:	e0bfe815 	stw	r2,-96(fp)
					iTimerActive = 1;
    1980:	00800044 	movi	r2,1
    1984:	e0bfea15 	stw	r2,-88(fp)
					xSemaphoreGive(semTimer);
    1988:	d0a02897 	ldw	r2,-32606(gp)
    198c:	000f883a 	mov	r7,zero
    1990:	000d883a 	mov	r6,zero
    1994:	000b883a 	mov	r5,zero
    1998:	1009883a 	mov	r4,r2
    199c:	00040cc0 	call	40cc <xQueueGenericSend>
    19a0:	00004c06 	br	1ad4 <vTaskLoadManager+0x42c>
				}
				// If timer is not active and unstable - start timer - shed load
				else if(!iTimerFlag && !iTimerFin && !iStable){
    19a4:	d0a02597 	ldw	r2,-32618(gp)
    19a8:	1000171e 	bne	r2,zero,1a08 <vTaskLoadManager+0x360>
    19ac:	d0a02697 	ldw	r2,-32614(gp)
    19b0:	1000151e 	bne	r2,zero,1a08 <vTaskLoadManager+0x360>
    19b4:	e0bff217 	ldw	r2,-56(fp)
    19b8:	1000131e 	bne	r2,zero,1a08 <vTaskLoadManager+0x360>
					xSemaphoreTake(semTimer, portMAX_DELAY);
    19bc:	d0a02897 	ldw	r2,-32606(gp)
    19c0:	000f883a 	mov	r7,zero
    19c4:	01bfffc4 	movi	r6,-1
    19c8:	000b883a 	mov	r5,zero
    19cc:	1009883a 	mov	r4,r2
    19d0:	000441c0 	call	441c <xQueueGenericReceive>
					iTimerFlag = 1;
    19d4:	00800044 	movi	r2,1
    19d8:	d0a02595 	stw	r2,-32618(gp)
					iFlagShed = 1;
    19dc:	00800044 	movi	r2,1
    19e0:	e0bfe815 	stw	r2,-96(fp)
					iTimerActive = 1;
    19e4:	00800044 	movi	r2,1
    19e8:	e0bfea15 	stw	r2,-88(fp)
					xSemaphoreGive(semTimer);
    19ec:	d0a02897 	ldw	r2,-32606(gp)
    19f0:	000f883a 	mov	r7,zero
    19f4:	000d883a 	mov	r6,zero
    19f8:	000b883a 	mov	r5,zero
    19fc:	1009883a 	mov	r4,r2
    1a00:	00040cc0 	call	40cc <xQueueGenericSend>
    1a04:	00003306 	br	1ad4 <vTaskLoadManager+0x42c>
				}
				// If timer has finished and unstable - reset timer - shed load
				else if(!iTimerFlag && iTimerFin && !iStable){
    1a08:	d0a02597 	ldw	r2,-32618(gp)
    1a0c:	1000181e 	bne	r2,zero,1a70 <vTaskLoadManager+0x3c8>
    1a10:	d0a02697 	ldw	r2,-32614(gp)
    1a14:	10001626 	beq	r2,zero,1a70 <vTaskLoadManager+0x3c8>
    1a18:	e0bff217 	ldw	r2,-56(fp)
    1a1c:	1000141e 	bne	r2,zero,1a70 <vTaskLoadManager+0x3c8>
					xSemaphoreTake(semTimer, portMAX_DELAY);
    1a20:	d0a02897 	ldw	r2,-32606(gp)
    1a24:	000f883a 	mov	r7,zero
    1a28:	01bfffc4 	movi	r6,-1
    1a2c:	000b883a 	mov	r5,zero
    1a30:	1009883a 	mov	r4,r2
    1a34:	000441c0 	call	441c <xQueueGenericReceive>
					iTimerFlag = 1;
    1a38:	00800044 	movi	r2,1
    1a3c:	d0a02595 	stw	r2,-32618(gp)
					iFlagShed = 1;
    1a40:	00800044 	movi	r2,1
    1a44:	e0bfe815 	stw	r2,-96(fp)
					iTimerFin = 0;
    1a48:	d0202695 	stw	zero,-32614(gp)
					iTimerActive = 1;
    1a4c:	00800044 	movi	r2,1
    1a50:	e0bfea15 	stw	r2,-88(fp)
					xSemaphoreGive(semTimer);
    1a54:	d0a02897 	ldw	r2,-32606(gp)
    1a58:	000f883a 	mov	r7,zero
    1a5c:	000d883a 	mov	r6,zero
    1a60:	000b883a 	mov	r5,zero
    1a64:	1009883a 	mov	r4,r2
    1a68:	00040cc0 	call	40cc <xQueueGenericSend>
    1a6c:	00001906 	br	1ad4 <vTaskLoadManager+0x42c>
				}
				// If timer has finished (from unstable) and has become stable - reset timer
				else if(!iTimerFlag && iTimerFin && iStable){
    1a70:	d0a02597 	ldw	r2,-32618(gp)
    1a74:	1000171e 	bne	r2,zero,1ad4 <vTaskLoadManager+0x42c>
    1a78:	d0a02697 	ldw	r2,-32614(gp)
    1a7c:	10001526 	beq	r2,zero,1ad4 <vTaskLoadManager+0x42c>
    1a80:	e0bff217 	ldw	r2,-56(fp)
    1a84:	10001326 	beq	r2,zero,1ad4 <vTaskLoadManager+0x42c>
					// if a load was shed - add load
					if(sLoadStat.iSheddedLoad > 0){
    1a88:	e0bff717 	ldw	r2,-36(fp)
    1a8c:	10001126 	beq	r2,zero,1ad4 <vTaskLoadManager+0x42c>
						xSemaphoreTake(semTimer, pdFALSE);
    1a90:	d0a02897 	ldw	r2,-32606(gp)
    1a94:	000f883a 	mov	r7,zero
    1a98:	000d883a 	mov	r6,zero
    1a9c:	000b883a 	mov	r5,zero
    1aa0:	1009883a 	mov	r4,r2
    1aa4:	000441c0 	call	441c <xQueueGenericReceive>
						iFlagAdd = 1;
    1aa8:	00800044 	movi	r2,1
    1aac:	e0bfe915 	stw	r2,-92(fp)
						iTimerFin = 0;
    1ab0:	d0202695 	stw	zero,-32614(gp)
						iTimerActive = 1;
    1ab4:	00800044 	movi	r2,1
    1ab8:	e0bfea15 	stw	r2,-88(fp)
						xSemaphoreGive(semTimer);
    1abc:	d0a02897 	ldw	r2,-32606(gp)
    1ac0:	000f883a 	mov	r7,zero
    1ac4:	000d883a 	mov	r6,zero
    1ac8:	000b883a 	mov	r5,zero
    1acc:	1009883a 	mov	r4,r2
    1ad0:	00040cc0 	call	40cc <xQueueGenericSend>
					}
				}

				if(iTimerActive){
    1ad4:	e0bfea17 	ldw	r2,-88(fp)
    1ad8:	10001026 	beq	r2,zero,1b1c <vTaskLoadManager+0x474>
					iTimerActive = 0;
    1adc:	e03fea15 	stw	zero,-88(fp)
					if (xTimerStart(timer500, 10) != pdPASS){
    1ae0:	d4a03697 	ldw	r18,-32550(gp)
    1ae4:	00052cc0 	call	52cc <xTaskGetTickCount>
    1ae8:	1007883a 	mov	r3,r2
    1aec:	00800284 	movi	r2,10
    1af0:	d8800015 	stw	r2,0(sp)
    1af4:	000f883a 	mov	r7,zero
    1af8:	180d883a 	mov	r6,r3
    1afc:	01400044 	movi	r5,1
    1b00:	9009883a 	mov	r4,r18
    1b04:	0006b100 	call	6b10 <xTimerGenericCommand>
    1b08:	10800060 	cmpeqi	r2,r2,1
    1b0c:	1000031e 	bne	r2,zero,1b1c <vTaskLoadManager+0x474>
						printf("Cannot start 500ms timer\n");
    1b10:	01020034 	movhi	r4,2048
    1b14:	21008a04 	addi	r4,r4,552
    1b18:	000bd040 	call	bd04 <puts>
					}
				}

				if(iFlagShed){
    1b1c:	e0bfe817 	ldw	r2,-96(fp)
    1b20:	10000c26 	beq	r2,zero,1b54 <vTaskLoadManager+0x4ac>
					xQueueSend(QShedLoad, &sLoadStat, portMAX_DELAY);
    1b24:	d0a03497 	ldw	r2,-32558(gp)
    1b28:	e0fff604 	addi	r3,fp,-40
    1b2c:	000f883a 	mov	r7,zero
    1b30:	01bfffc4 	movi	r6,-1
    1b34:	180b883a 	mov	r5,r3
    1b38:	1009883a 	mov	r4,r2
    1b3c:	00040cc0 	call	40cc <xQueueGenericSend>
					if (!iManagingLoad){
    1b40:	e0bfeb17 	ldw	r2,-84(fp)
    1b44:	1000151e 	bne	r2,zero,1b9c <vTaskLoadManager+0x4f4>
						iManagingLoad = 1;
    1b48:	00800044 	movi	r2,1
    1b4c:	e0bfeb15 	stw	r2,-84(fp)
					if (xTimerStart(timer500, 10) != pdPASS){
						printf("Cannot start 500ms timer\n");
					}
				}

				if(iFlagShed){
    1b50:	00001206 	br	1b9c <vTaskLoadManager+0x4f4>
					xQueueSend(QShedLoad, &sLoadStat, portMAX_DELAY);
					if (!iManagingLoad){
						iManagingLoad = 1;
					}
				}
				else if(iFlagAdd){
    1b54:	e0bfe917 	ldw	r2,-92(fp)
    1b58:	10001026 	beq	r2,zero,1b9c <vTaskLoadManager+0x4f4>
					xQueueSend(QAddLoad, &sLoadStat, portMAX_DELAY);
    1b5c:	d0a03097 	ldw	r2,-32574(gp)
    1b60:	e0fff604 	addi	r3,fp,-40
    1b64:	000f883a 	mov	r7,zero
    1b68:	01bfffc4 	movi	r6,-1
    1b6c:	180b883a 	mov	r5,r3
    1b70:	1009883a 	mov	r4,r2
    1b74:	00040cc0 	call	40cc <xQueueGenericSend>
					if (sHandledLoadStat.iUnSheddedLoad == 0){
    1b78:	e0bffa17 	ldw	r2,-24(fp)
    1b7c:	1000071e 	bne	r2,zero,1b9c <vTaskLoadManager+0x4f4>
						iManagingLoad = 0;
    1b80:	e03feb15 	stw	zero,-84(fp)
					if (xTimerStart(timer500, 10) != pdPASS){
						printf("Cannot start 500ms timer\n");
					}
				}

				if(iFlagShed){
    1b84:	00000506 	br	1b9c <vTaskLoadManager+0x4f4>
						iManagingLoad = 0;
					}
				}
			}
			else{
				sLoadStat.iSheddedLoad = 0;
    1b88:	e03ff715 	stw	zero,-36(fp)
				sLoadStat.iUnSheddedLoad = 0;
    1b8c:	e03ff815 	stw	zero,-32(fp)
				sHandledLoadStat.iSheddedLoad = 0;
    1b90:	e03ff915 	stw	zero,-28(fp)
				sHandledLoadStat.iUnSheddedLoad = 0;
    1b94:	e03ffa15 	stw	zero,-24(fp)
    1b98:	00000106 	br	1ba0 <vTaskLoadManager+0x4f8>
					if (xTimerStart(timer500, 10) != pdPASS){
						printf("Cannot start 500ms timer\n");
					}
				}

				if(iFlagShed){
    1b9c:	0001883a 	nop
				sLoadStat.iUnSheddedLoad = 0;
				sHandledLoadStat.iSheddedLoad = 0;
				sHandledLoadStat.iUnSheddedLoad = 0;
			}

			if (xQueueReceive(QAddedShed, &sHandledLoadStat, 0) == pdTRUE && iFlagShed){
    1ba0:	d0a02b97 	ldw	r2,-32594(gp)
    1ba4:	e0fff904 	addi	r3,fp,-28
    1ba8:	000f883a 	mov	r7,zero
    1bac:	000d883a 	mov	r6,zero
    1bb0:	180b883a 	mov	r5,r3
    1bb4:	1009883a 	mov	r4,r2
    1bb8:	000441c0 	call	441c <xQueueGenericReceive>
    1bbc:	10800058 	cmpnei	r2,r2,1
    1bc0:	1000551e 	bne	r2,zero,1d18 <vTaskLoadManager+0x670>
    1bc4:	e0bfe817 	ldw	r2,-96(fp)
    1bc8:	10005326 	beq	r2,zero,1d18 <vTaskLoadManager+0x670>

				iFlagShed = 0;
    1bcc:	e03fe815 	stw	zero,-96(fp)
				sLoadStat.iSheddedLoad = sHandledLoadStat.iSheddedLoad;
    1bd0:	e0bff917 	ldw	r2,-28(fp)
    1bd4:	e0bff715 	stw	r2,-36(fp)
				sLoadStat.iUnSheddedLoad = sHandledLoadStat.iUnSheddedLoad;
    1bd8:	e0bffa17 	ldw	r2,-24(fp)
    1bdc:	e0bff815 	stw	r2,-32(fp)

				if (responseTimeFlag == 1){
    1be0:	d0a01f97 	ldw	r2,-32642(gp)
    1be4:	10800058 	cmpnei	r2,r2,1
    1be8:	10005b1e 	bne	r2,zero,1d58 <vTaskLoadManager+0x6b0>
					endTime = xTaskGetTickCount();
    1bec:	00052cc0 	call	52cc <xTaskGetTickCount>
    1bf0:	d0a01e95 	stw	r2,-32646(gp)
					responseTimeFlag = 0;
    1bf4:	d0201f95 	stw	zero,-32642(gp)
					unsigned int timeDifference = endTime - startTime;
    1bf8:	d0e01e97 	ldw	r3,-32646(gp)
    1bfc:	d0a01d97 	ldw	r2,-32650(gp)
    1c00:	1885c83a 	sub	r2,r3,r2
    1c04:	e0bff115 	stw	r2,-60(fp)

					for (int i = 0; i < 4; i++){
    1c08:	e03fee15 	stw	zero,-72(fp)
    1c0c:	00001206 	br	1c58 <vTaskLoadManager+0x5b0>
						topFiveRecords[i] = topFiveRecords [i+1];
    1c10:	e0bfee17 	ldw	r2,-72(fp)
    1c14:	10c00044 	addi	r3,r2,1
    1c18:	00820034 	movhi	r2,2048
    1c1c:	108bb004 	addi	r2,r2,11968
    1c20:	18c7883a 	add	r3,r3,r3
    1c24:	18c7883a 	add	r3,r3,r3
    1c28:	10c5883a 	add	r2,r2,r3
    1c2c:	11000017 	ldw	r4,0(r2)
    1c30:	00820034 	movhi	r2,2048
    1c34:	108bb004 	addi	r2,r2,11968
    1c38:	e0ffee17 	ldw	r3,-72(fp)
    1c3c:	18c7883a 	add	r3,r3,r3
    1c40:	18c7883a 	add	r3,r3,r3
    1c44:	10c5883a 	add	r2,r2,r3
    1c48:	11000015 	stw	r4,0(r2)
				if (responseTimeFlag == 1){
					endTime = xTaskGetTickCount();
					responseTimeFlag = 0;
					unsigned int timeDifference = endTime - startTime;

					for (int i = 0; i < 4; i++){
    1c4c:	e0bfee17 	ldw	r2,-72(fp)
    1c50:	10800044 	addi	r2,r2,1
    1c54:	e0bfee15 	stw	r2,-72(fp)
    1c58:	e0bfee17 	ldw	r2,-72(fp)
    1c5c:	10800110 	cmplti	r2,r2,4
    1c60:	103feb1e 	bne	r2,zero,1c10 <__alt_data_end+0xf0001c10>
						topFiveRecords[i] = topFiveRecords [i+1];
					}
					topFiveRecords[4] = timeDifference;
    1c64:	e0fff117 	ldw	r3,-60(fp)
    1c68:	00820034 	movhi	r2,2048
    1c6c:	108bb004 	addi	r2,r2,11968
    1c70:	10c00415 	stw	r3,16(r2)

					// Calculate Max, Min and Average
					if (timeDifference > maxTime){
    1c74:	d0a02097 	ldw	r2,-32638(gp)
    1c78:	1007883a 	mov	r3,r2
    1c7c:	e0bff117 	ldw	r2,-60(fp)
    1c80:	1880082e 	bgeu	r3,r2,1ca4 <vTaskLoadManager+0x5fc>
						maxTime = timeDifference;
    1c84:	e0bff117 	ldw	r2,-60(fp)
    1c88:	d0a02095 	stw	r2,-32638(gp)
						printf("maxTime: %d\n", maxTime);
    1c8c:	d0a02097 	ldw	r2,-32638(gp)
    1c90:	100b883a 	mov	r5,r2
    1c94:	01020034 	movhi	r4,2048
    1c98:	21009104 	addi	r4,r4,580
    1c9c:	000bc080 	call	bc08 <printf>
    1ca0:	00000b06 	br	1cd0 <vTaskLoadManager+0x628>
					}

					else if (timeDifference < minTime){
    1ca4:	d0a00097 	ldw	r2,-32766(gp)
    1ca8:	1007883a 	mov	r3,r2
    1cac:	e0bff117 	ldw	r2,-60(fp)
    1cb0:	10c0072e 	bgeu	r2,r3,1cd0 <vTaskLoadManager+0x628>
						minTime = timeDifference;
    1cb4:	e0bff117 	ldw	r2,-60(fp)
    1cb8:	d0a00095 	stw	r2,-32766(gp)
						printf("minTime: %d\n", minTime);
    1cbc:	d0a00097 	ldw	r2,-32766(gp)
    1cc0:	100b883a 	mov	r5,r2
    1cc4:	01020034 	movhi	r4,2048
    1cc8:	21009504 	addi	r4,r4,596
    1ccc:	000bc080 	call	bc08 <printf>
					}

					count = count + 1;
    1cd0:	d0a02397 	ldw	r2,-32626(gp)
    1cd4:	10800044 	addi	r2,r2,1
    1cd8:	d0a02395 	stw	r2,-32626(gp)
					sumTime = sumTime + timeDifference;
    1cdc:	d0a02297 	ldw	r2,-32630(gp)
    1ce0:	1007883a 	mov	r3,r2
    1ce4:	e0bff117 	ldw	r2,-60(fp)
    1ce8:	1885883a 	add	r2,r3,r2
    1cec:	d0a02295 	stw	r2,-32630(gp)
					avgTime = sumTime / count;
    1cf0:	d0e02297 	ldw	r3,-32630(gp)
    1cf4:	d0a02397 	ldw	r2,-32626(gp)
    1cf8:	1885283a 	div	r2,r3,r2
    1cfc:	d0a02195 	stw	r2,-32634(gp)

					printf("avgTime: %d\n", avgTime);
    1d00:	d0a02197 	ldw	r2,-32634(gp)
    1d04:	100b883a 	mov	r5,r2
    1d08:	01020034 	movhi	r4,2048
    1d0c:	21009904 	addi	r4,r4,612
    1d10:	000bc080 	call	bc08 <printf>

				iFlagShed = 0;
				sLoadStat.iSheddedLoad = sHandledLoadStat.iSheddedLoad;
				sLoadStat.iUnSheddedLoad = sHandledLoadStat.iUnSheddedLoad;

				if (responseTimeFlag == 1){
    1d14:	00001006 	br	1d58 <vTaskLoadManager+0x6b0>
					avgTime = sumTime / count;

					printf("avgTime: %d\n", avgTime);
				}
			}
			else if (xQueueReceive(QAddedLoad, &sHandledLoadStat, 0) == pdTRUE && iFlagAdd){
    1d18:	d0a02d97 	ldw	r2,-32586(gp)
    1d1c:	e0fff904 	addi	r3,fp,-28
    1d20:	000f883a 	mov	r7,zero
    1d24:	000d883a 	mov	r6,zero
    1d28:	180b883a 	mov	r5,r3
    1d2c:	1009883a 	mov	r4,r2
    1d30:	000441c0 	call	441c <xQueueGenericReceive>
    1d34:	10800058 	cmpnei	r2,r2,1
    1d38:	1000071e 	bne	r2,zero,1d58 <vTaskLoadManager+0x6b0>
    1d3c:	e0bfe917 	ldw	r2,-92(fp)
    1d40:	10000526 	beq	r2,zero,1d58 <vTaskLoadManager+0x6b0>
				iFlagAdd = 0;
    1d44:	e03fe915 	stw	zero,-92(fp)
				sLoadStat.iSheddedLoad = sHandledLoadStat.iSheddedLoad;
    1d48:	e0bff917 	ldw	r2,-28(fp)
    1d4c:	e0bff715 	stw	r2,-36(fp)
				sLoadStat.iUnSheddedLoad = sHandledLoadStat.iUnSheddedLoad;
    1d50:	e0bffa17 	ldw	r2,-24(fp)
    1d54:	e0bff815 	stw	r2,-32(fp)
			}

			IOWR_ALTERA_AVALON_PIO_DATA(GREEN_LEDS_BASE, sLoadStat.iSheddedLoad & 0x1F);
    1d58:	e0bff717 	ldw	r2,-36(fp)
    1d5c:	10c007cc 	andi	r3,r2,31
    1d60:	00800134 	movhi	r2,4
    1d64:	108c2004 	addi	r2,r2,12416
    1d68:	10c00035 	stwio	r3,0(r2)
			IOWR_ALTERA_AVALON_PIO_DATA(RED_LEDS_BASE, (sLoadStat.iSheddedLoad ^ sLoadStat.iCurrentLoad) & 0x1F);
    1d6c:	e0fff717 	ldw	r3,-36(fp)
    1d70:	e0bff617 	ldw	r2,-40(fp)
    1d74:	1884f03a 	xor	r2,r3,r2
    1d78:	10c007cc 	andi	r3,r2,31
    1d7c:	00800134 	movhi	r2,4
    1d80:	108c1804 	addi	r2,r2,12384
    1d84:	10c00035 	stwio	r3,0(r2)
		}
		vTaskDelay(5);
    1d88:	01000144 	movi	r4,5
    1d8c:	0004ffc0 	call	4ffc <vTaskDelay>
	}
    1d90:	003e5b06 	br	1700 <__alt_data_end+0xf0001700>

00001d94 <vTaskShed>:
}

/* Shed load task */
void vTaskShed(void *pvParameters)
{
    1d94:	defff804 	addi	sp,sp,-32
    1d98:	dfc00715 	stw	ra,28(sp)
    1d9c:	df000615 	stw	fp,24(sp)
    1da0:	df000604 	addi	fp,sp,24
    1da4:	e13fff15 	stw	r4,-4(fp)
	sLoadStat sLoadStat;
	sHandledLoadStat sHandledLoadStat;

	while(1)
	{
		if(uxQueueMessagesWaiting(QShedLoad) != 0){
    1da8:	d0a03497 	ldw	r2,-32558(gp)
    1dac:	1009883a 	mov	r4,r2
    1db0:	00047800 	call	4780 <uxQueueMessagesWaiting>
    1db4:	10005826 	beq	r2,zero,1f18 <vTaskShed+0x184>
			xQueueReceive(QShedLoad,  (void *) &sLoadStat, portMAX_DELAY);
    1db8:	d0a03497 	ldw	r2,-32558(gp)
    1dbc:	000f883a 	mov	r7,zero
    1dc0:	01bfffc4 	movi	r6,-1
    1dc4:	e17ffa04 	addi	r5,fp,-24
    1dc8:	1009883a 	mov	r4,r2
    1dcc:	000441c0 	call	441c <xQueueGenericReceive>

			if((sLoadStat.iCurrentLoad & 0x01) == 0x01 && (sLoadStat.iSheddedLoad & 0x01) != 0x01){
    1dd0:	e0bffa17 	ldw	r2,-24(fp)
    1dd4:	1080004c 	andi	r2,r2,1
    1dd8:	10000b26 	beq	r2,zero,1e08 <vTaskShed+0x74>
    1ddc:	e0bffb17 	ldw	r2,-20(fp)
    1de0:	1080004c 	andi	r2,r2,1
    1de4:	1000081e 	bne	r2,zero,1e08 <vTaskShed+0x74>
				sLoadStat.iSheddedLoad |= 0x01;
    1de8:	e0bffb17 	ldw	r2,-20(fp)
    1dec:	10800054 	ori	r2,r2,1
    1df0:	e0bffb15 	stw	r2,-20(fp)
				sLoadStat.iUnSheddedLoad &= ~01;
    1df4:	e0fffc17 	ldw	r3,-16(fp)
    1df8:	00bfff84 	movi	r2,-2
    1dfc:	1884703a 	and	r2,r3,r2
    1e00:	e0bffc15 	stw	r2,-16(fp)
    1e04:	00003906 	br	1eec <vTaskShed+0x158>
			}
			else if((sLoadStat.iCurrentLoad & 0x02) == 0x02 && (sLoadStat.iSheddedLoad & 0x02) != 0x02){
    1e08:	e0bffa17 	ldw	r2,-24(fp)
    1e0c:	1080008c 	andi	r2,r2,2
    1e10:	10000b26 	beq	r2,zero,1e40 <vTaskShed+0xac>
    1e14:	e0bffb17 	ldw	r2,-20(fp)
    1e18:	1080008c 	andi	r2,r2,2
    1e1c:	1000081e 	bne	r2,zero,1e40 <vTaskShed+0xac>
				sLoadStat.iSheddedLoad |= 0x02;
    1e20:	e0bffb17 	ldw	r2,-20(fp)
    1e24:	10800094 	ori	r2,r2,2
    1e28:	e0bffb15 	stw	r2,-20(fp)
				sLoadStat.iUnSheddedLoad &= ~0x02;
    1e2c:	e0fffc17 	ldw	r3,-16(fp)
    1e30:	00bfff44 	movi	r2,-3
    1e34:	1884703a 	and	r2,r3,r2
    1e38:	e0bffc15 	stw	r2,-16(fp)
    1e3c:	00002b06 	br	1eec <vTaskShed+0x158>
			}
			else if((sLoadStat.iCurrentLoad & 0x04) == 0x04 && (sLoadStat.iSheddedLoad & 0x04) != 0x04){
    1e40:	e0bffa17 	ldw	r2,-24(fp)
    1e44:	1080010c 	andi	r2,r2,4
    1e48:	10000b26 	beq	r2,zero,1e78 <vTaskShed+0xe4>
    1e4c:	e0bffb17 	ldw	r2,-20(fp)
    1e50:	1080010c 	andi	r2,r2,4
    1e54:	1000081e 	bne	r2,zero,1e78 <vTaskShed+0xe4>
				sLoadStat.iSheddedLoad |= 0x04;
    1e58:	e0bffb17 	ldw	r2,-20(fp)
    1e5c:	10800114 	ori	r2,r2,4
    1e60:	e0bffb15 	stw	r2,-20(fp)
				sLoadStat.iUnSheddedLoad &= ~0x04;
    1e64:	e0fffc17 	ldw	r3,-16(fp)
    1e68:	00bffec4 	movi	r2,-5
    1e6c:	1884703a 	and	r2,r3,r2
    1e70:	e0bffc15 	stw	r2,-16(fp)
    1e74:	00001d06 	br	1eec <vTaskShed+0x158>
			}
			else if((sLoadStat.iCurrentLoad & 0x08) == 0x08 && (sLoadStat.iSheddedLoad & 0x08) != 0x08){
    1e78:	e0bffa17 	ldw	r2,-24(fp)
    1e7c:	1080020c 	andi	r2,r2,8
    1e80:	10000b26 	beq	r2,zero,1eb0 <vTaskShed+0x11c>
    1e84:	e0bffb17 	ldw	r2,-20(fp)
    1e88:	1080020c 	andi	r2,r2,8
    1e8c:	1000081e 	bne	r2,zero,1eb0 <vTaskShed+0x11c>
				sLoadStat.iSheddedLoad |= 0x08;
    1e90:	e0bffb17 	ldw	r2,-20(fp)
    1e94:	10800214 	ori	r2,r2,8
    1e98:	e0bffb15 	stw	r2,-20(fp)
				sLoadStat.iUnSheddedLoad &= ~0x08;
    1e9c:	e0fffc17 	ldw	r3,-16(fp)
    1ea0:	00bffdc4 	movi	r2,-9
    1ea4:	1884703a 	and	r2,r3,r2
    1ea8:	e0bffc15 	stw	r2,-16(fp)
    1eac:	00000f06 	br	1eec <vTaskShed+0x158>
			}
			else if((sLoadStat.iCurrentLoad & 0x16) == 0x16 && (sLoadStat.iSheddedLoad & 0x16) != 0x16){
    1eb0:	e0bffa17 	ldw	r2,-24(fp)
    1eb4:	1080058c 	andi	r2,r2,22
    1eb8:	10800598 	cmpnei	r2,r2,22
    1ebc:	10000b1e 	bne	r2,zero,1eec <vTaskShed+0x158>
    1ec0:	e0bffb17 	ldw	r2,-20(fp)
    1ec4:	1080058c 	andi	r2,r2,22
    1ec8:	108005a0 	cmpeqi	r2,r2,22
    1ecc:	1000071e 	bne	r2,zero,1eec <vTaskShed+0x158>
				sLoadStat.iSheddedLoad |= 0x16;
    1ed0:	e0bffb17 	ldw	r2,-20(fp)
    1ed4:	10800594 	ori	r2,r2,22
    1ed8:	e0bffb15 	stw	r2,-20(fp)
				sLoadStat.iUnSheddedLoad &= ~0x16;
    1edc:	e0fffc17 	ldw	r3,-16(fp)
    1ee0:	00bffa44 	movi	r2,-23
    1ee4:	1884703a 	and	r2,r3,r2
    1ee8:	e0bffc15 	stw	r2,-16(fp)
			}

			sHandledLoadStat.iSheddedLoad = sLoadStat.iSheddedLoad;
    1eec:	e0bffb17 	ldw	r2,-20(fp)
    1ef0:	e0bffd15 	stw	r2,-12(fp)
			sHandledLoadStat.iUnSheddedLoad = sLoadStat.iUnSheddedLoad;
    1ef4:	e0bffc17 	ldw	r2,-16(fp)
    1ef8:	e0bffe15 	stw	r2,-8(fp)

			xQueueSend(QAddedShed, (void*)&sHandledLoadStat, portMAX_DELAY);
    1efc:	d0a02b97 	ldw	r2,-32594(gp)
    1f00:	e0fffd04 	addi	r3,fp,-12
    1f04:	000f883a 	mov	r7,zero
    1f08:	01bfffc4 	movi	r6,-1
    1f0c:	180b883a 	mov	r5,r3
    1f10:	1009883a 	mov	r4,r2
    1f14:	00040cc0 	call	40cc <xQueueGenericSend>
		}
		vTaskDelay(5);
    1f18:	01000144 	movi	r4,5
    1f1c:	0004ffc0 	call	4ffc <vTaskDelay>
	}
    1f20:	003fa106 	br	1da8 <__alt_data_end+0xf0001da8>

00001f24 <vTaskAdd>:
	return;
}

/* Add load task */
void vTaskAdd(void *pvParameters)
{
    1f24:	defff804 	addi	sp,sp,-32
    1f28:	dfc00715 	stw	ra,28(sp)
    1f2c:	df000615 	stw	fp,24(sp)
    1f30:	df000604 	addi	fp,sp,24
    1f34:	e13fff15 	stw	r4,-4(fp)
	sLoadStat sLoadStat;
	sHandledLoadStat sHandledLoadStat;

	while(1)
	{
		if(uxQueueMessagesWaiting(QAddLoad) != 0){
    1f38:	d0a03097 	ldw	r2,-32574(gp)
    1f3c:	1009883a 	mov	r4,r2
    1f40:	00047800 	call	4780 <uxQueueMessagesWaiting>
    1f44:	10005826 	beq	r2,zero,20a8 <vTaskAdd+0x184>
			xQueueReceive(QAddLoad, (void *) &sLoadStat, portMAX_DELAY);
    1f48:	d0a03097 	ldw	r2,-32574(gp)
    1f4c:	000f883a 	mov	r7,zero
    1f50:	01bfffc4 	movi	r6,-1
    1f54:	e17ffa04 	addi	r5,fp,-24
    1f58:	1009883a 	mov	r4,r2
    1f5c:	000441c0 	call	441c <xQueueGenericReceive>
//			printf("b Add iSheddedLoad: %d\n",sHandledLoadStat.iSheddedLoad);
//			printf("b Add iUnSheddedLoad: %d\n",sHandledLoadStat.iUnSheddedLoad);

			if((sLoadStat.iCurrentLoad & 0x16) == 0x16 && (sLoadStat.iSheddedLoad & 0x16) == 0x16){
    1f60:	e0bffa17 	ldw	r2,-24(fp)
    1f64:	1080058c 	andi	r2,r2,22
    1f68:	10800598 	cmpnei	r2,r2,22
    1f6c:	10000c1e 	bne	r2,zero,1fa0 <vTaskAdd+0x7c>
    1f70:	e0bffb17 	ldw	r2,-20(fp)
    1f74:	1080058c 	andi	r2,r2,22
    1f78:	10800598 	cmpnei	r2,r2,22
    1f7c:	1000081e 	bne	r2,zero,1fa0 <vTaskAdd+0x7c>
				sLoadStat.iSheddedLoad &= ~0x16;
    1f80:	e0fffb17 	ldw	r3,-20(fp)
    1f84:	00bffa44 	movi	r2,-23
    1f88:	1884703a 	and	r2,r3,r2
    1f8c:	e0bffb15 	stw	r2,-20(fp)
				sLoadStat.iUnSheddedLoad |= 0x16;
    1f90:	e0bffc17 	ldw	r2,-16(fp)
    1f94:	10800594 	ori	r2,r2,22
    1f98:	e0bffc15 	stw	r2,-16(fp)
    1f9c:	00003706 	br	207c <vTaskAdd+0x158>
			}
			else if((sLoadStat.iCurrentLoad & 0x08) == 0x08 && (sLoadStat.iSheddedLoad & 0x08) == 0x08){
    1fa0:	e0bffa17 	ldw	r2,-24(fp)
    1fa4:	1080020c 	andi	r2,r2,8
    1fa8:	10000b26 	beq	r2,zero,1fd8 <vTaskAdd+0xb4>
    1fac:	e0bffb17 	ldw	r2,-20(fp)
    1fb0:	1080020c 	andi	r2,r2,8
    1fb4:	10000826 	beq	r2,zero,1fd8 <vTaskAdd+0xb4>
				sLoadStat.iSheddedLoad &= ~0x08;
    1fb8:	e0fffb17 	ldw	r3,-20(fp)
    1fbc:	00bffdc4 	movi	r2,-9
    1fc0:	1884703a 	and	r2,r3,r2
    1fc4:	e0bffb15 	stw	r2,-20(fp)
				sLoadStat.iUnSheddedLoad |= 0x08;
    1fc8:	e0bffc17 	ldw	r2,-16(fp)
    1fcc:	10800214 	ori	r2,r2,8
    1fd0:	e0bffc15 	stw	r2,-16(fp)
    1fd4:	00002906 	br	207c <vTaskAdd+0x158>
			}
			else if((sLoadStat.iCurrentLoad & 0x04) == 0x04 && (sLoadStat.iSheddedLoad & 0x04) == 0x04){
    1fd8:	e0bffa17 	ldw	r2,-24(fp)
    1fdc:	1080010c 	andi	r2,r2,4
    1fe0:	10000b26 	beq	r2,zero,2010 <vTaskAdd+0xec>
    1fe4:	e0bffb17 	ldw	r2,-20(fp)
    1fe8:	1080010c 	andi	r2,r2,4
    1fec:	10000826 	beq	r2,zero,2010 <vTaskAdd+0xec>
				sLoadStat.iSheddedLoad &= ~0x04;
    1ff0:	e0fffb17 	ldw	r3,-20(fp)
    1ff4:	00bffec4 	movi	r2,-5
    1ff8:	1884703a 	and	r2,r3,r2
    1ffc:	e0bffb15 	stw	r2,-20(fp)
				sLoadStat.iUnSheddedLoad |= 0x04;
    2000:	e0bffc17 	ldw	r2,-16(fp)
    2004:	10800114 	ori	r2,r2,4
    2008:	e0bffc15 	stw	r2,-16(fp)
    200c:	00001b06 	br	207c <vTaskAdd+0x158>
			}
			else if((sLoadStat.iCurrentLoad & 0x02) == 0x02 && (sLoadStat.iSheddedLoad & 0x02) == 0x02){
    2010:	e0bffa17 	ldw	r2,-24(fp)
    2014:	1080008c 	andi	r2,r2,2
    2018:	10000b26 	beq	r2,zero,2048 <vTaskAdd+0x124>
    201c:	e0bffb17 	ldw	r2,-20(fp)
    2020:	1080008c 	andi	r2,r2,2
    2024:	10000826 	beq	r2,zero,2048 <vTaskAdd+0x124>
				sLoadStat.iSheddedLoad &= ~0x02;
    2028:	e0fffb17 	ldw	r3,-20(fp)
    202c:	00bfff44 	movi	r2,-3
    2030:	1884703a 	and	r2,r3,r2
    2034:	e0bffb15 	stw	r2,-20(fp)
				sLoadStat.iUnSheddedLoad |= 0x02;
    2038:	e0bffc17 	ldw	r2,-16(fp)
    203c:	10800094 	ori	r2,r2,2
    2040:	e0bffc15 	stw	r2,-16(fp)
    2044:	00000d06 	br	207c <vTaskAdd+0x158>
			}
			else if((sLoadStat.iCurrentLoad & 0x01) == 0x01 && (sLoadStat.iSheddedLoad & 0x01) == 0x01){
    2048:	e0bffa17 	ldw	r2,-24(fp)
    204c:	1080004c 	andi	r2,r2,1
    2050:	10000a26 	beq	r2,zero,207c <vTaskAdd+0x158>
    2054:	e0bffb17 	ldw	r2,-20(fp)
    2058:	1080004c 	andi	r2,r2,1
    205c:	10000726 	beq	r2,zero,207c <vTaskAdd+0x158>
				sLoadStat.iSheddedLoad &= ~0x01;
    2060:	e0fffb17 	ldw	r3,-20(fp)
    2064:	00bfff84 	movi	r2,-2
    2068:	1884703a 	and	r2,r3,r2
    206c:	e0bffb15 	stw	r2,-20(fp)
				sLoadStat.iUnSheddedLoad |= 0x01;
    2070:	e0bffc17 	ldw	r2,-16(fp)
    2074:	10800054 	ori	r2,r2,1
    2078:	e0bffc15 	stw	r2,-16(fp)
			}

//			printf("a Add iSheddedLoad: %d\n",sHandledLoadStat.iSheddedLoad);
//			printf("a Add iUnSheddedLoad: %d\n",sHandledLoadStat.iUnSheddedLoad);

			sHandledLoadStat.iSheddedLoad = sLoadStat.iSheddedLoad;
    207c:	e0bffb17 	ldw	r2,-20(fp)
    2080:	e0bffd15 	stw	r2,-12(fp)
			sHandledLoadStat.iUnSheddedLoad = sLoadStat.iUnSheddedLoad;
    2084:	e0bffc17 	ldw	r2,-16(fp)
    2088:	e0bffe15 	stw	r2,-8(fp)

			xQueueSend(QAddedLoad, (void*)&sHandledLoadStat, portMAX_DELAY);
    208c:	d0a02d97 	ldw	r2,-32586(gp)
    2090:	e0fffd04 	addi	r3,fp,-12
    2094:	000f883a 	mov	r7,zero
    2098:	01bfffc4 	movi	r6,-1
    209c:	180b883a 	mov	r5,r3
    20a0:	1009883a 	mov	r4,r2
    20a4:	00040cc0 	call	40cc <xQueueGenericSend>
		}
		vTaskDelay(5);
    20a8:	01000144 	movi	r4,5
    20ac:	0004ffc0 	call	4ffc <vTaskDelay>
	}
    20b0:	003fa106 	br	1f38 <__alt_data_end+0xf0001f38>

000020b4 <vTimer500_Callback>:
	return;
}

/* Timer functions*/
void vTimer500_Callback(xTimerHandle t_timer)
{
    20b4:	defffd04 	addi	sp,sp,-12
    20b8:	dfc00215 	stw	ra,8(sp)
    20bc:	df000115 	stw	fp,4(sp)
    20c0:	df000104 	addi	fp,sp,4
    20c4:	e13fff15 	stw	r4,-4(fp)
	//xSemaphoreTake(timer_sem, portMAX_DELAY);
	iTimerFlag = 0;
    20c8:	d0202595 	stw	zero,-32618(gp)
	iTimerFin = 1;
    20cc:	00800044 	movi	r2,1
    20d0:	d0a02695 	stw	r2,-32614(gp)
	xSemaphoreGiveFromISR(semTimer, pdTRUE);
    20d4:	d0a02897 	ldw	r2,-32606(gp)
    20d8:	01400044 	movi	r5,1
    20dc:	1009883a 	mov	r4,r2
    20e0:	000434c0 	call	434c <xQueueGiveFromISR>
	return;
    20e4:	0001883a 	nop
}
    20e8:	e037883a 	mov	sp,fp
    20ec:	dfc00117 	ldw	ra,4(sp)
    20f0:	df000017 	ldw	fp,0(sp)
    20f4:	dec00204 	addi	sp,sp,8
    20f8:	f800283a 	ret

000020fc <main>:

void main(int argc, char* argv[], char* envp[])
{
    20fc:	defff804 	addi	sp,sp,-32
    2100:	dfc00715 	stw	ra,28(sp)
    2104:	df000615 	stw	fp,24(sp)
    2108:	df000604 	addi	fp,sp,24
    210c:	e13ffd15 	stw	r4,-12(fp)
    2110:	e17ffe15 	stw	r5,-8(fp)
    2114:	e1bfff15 	stw	r6,-4(fp)
	/* Keyboard set up */
	alt_up_ps2_dev * ps2_device = alt_up_ps2_open_dev(PS2_NAME);
    2118:	01020034 	movhi	r4,2048
    211c:	21009d04 	addi	r4,r4,628
    2120:	001d1c80 	call	1d1c8 <alt_up_ps2_open_dev>
    2124:	e0bffb15 	stw	r2,-20(fp)

	if(ps2_device == NULL){
    2128:	e0bffb17 	ldw	r2,-20(fp)
    212c:	1000031e 	bne	r2,zero,213c <main+0x40>
		printf("can't find PS/2 device\n");
    2130:	01020034 	movhi	r4,2048
    2134:	2100a004 	addi	r4,r4,640
    2138:	000bd040 	call	bd04 <puts>
	}

	alt_up_ps2_clear_fifo (ps2_device) ;
    213c:	e13ffb17 	ldw	r4,-20(fp)
    2140:	001d04c0 	call	1d04c <alt_up_ps2_clear_fifo>
	alt_up_ps2_enable_read_interrupt(ps2_device);
    2144:	e13ffb17 	ldw	r4,-20(fp)
    2148:	001cd440 	call	1cd44 <alt_up_ps2_enable_read_interrupt>
	alt_irq_register(PS2_IRQ, ps2_device, vISRKeyboard);
    214c:	01800034 	movhi	r6,0
    2150:	31844e04 	addi	r6,r6,4408
    2154:	e17ffb17 	ldw	r5,-20(fp)
    2158:	01000084 	movi	r4,2
    215c:	0003b100 	call	3b10 <alt_irq_register>

	/* Register the PS/2 interrupt */
	IOWR_8DIRECT(PS2_BASE,4,1);
    2160:	00c00044 	movi	r3,1
    2164:	00800134 	movhi	r2,4
    2168:	108c3904 	addi	r2,r2,12516
    216c:	10c00025 	stbio	r3,0(r2)

	/* Start Frequency ISR */
	alt_irq_register(FREQUENCY_ANALYSER_IRQ, 0, vISRFreqRelay);
    2170:	01800034 	movhi	r6,0
    2174:	31857204 	addi	r6,r6,5576
    2178:	000b883a 	mov	r5,zero
    217c:	010001c4 	movi	r4,7
    2180:	0003b100 	call	3b10 <alt_irq_register>

	/* Push button setup */
	int iButtonValue = 0;
    2184:	e03ffc15 	stw	zero,-16(fp)

	/* Clears the edge capture register. Writing 1 to bit clears pending interrupt for corresponding button.*/
	IOWR_ALTERA_AVALON_PIO_EDGE_CAP(PUSH_BUTTON_BASE, 0x07);
    2188:	00c001c4 	movi	r3,7
    218c:	00800134 	movhi	r2,4
    2190:	108c3304 	addi	r2,r2,12492
    2194:	10c00035 	stwio	r3,0(r2)

	/* Enable interrupts for key1 */
	IOWR_ALTERA_AVALON_PIO_IRQ_MASK(PUSH_BUTTON_BASE, 0x01);
    2198:	00c00044 	movi	r3,1
    219c:	00800134 	movhi	r2,4
    21a0:	108c3204 	addi	r2,r2,12488
    21a4:	10c00035 	stwio	r3,0(r2)

	/* Register the ISR for push button */
	alt_irq_register(PUSH_BUTTON_IRQ,(void*)&iButtonValue, vISRButtonMode);
    21a8:	e0bffc04 	addi	r2,fp,-16
    21ac:	01800034 	movhi	r6,0
    21b0:	31842d04 	addi	r6,r6,4276
    21b4:	100b883a 	mov	r5,r2
    21b8:	01000044 	movi	r4,1
    21bc:	0003b100 	call	3b10 <alt_irq_register>

	/* Create Timer */
	timer500 = xTimerCreate("Timer500", pdMS_TO_TICKS(500), pdFALSE, NULL, vTimer500_Callback);
    21c0:	00800034 	movhi	r2,0
    21c4:	10882d04 	addi	r2,r2,8372
    21c8:	d8800015 	stw	r2,0(sp)
    21cc:	000f883a 	mov	r7,zero
    21d0:	000d883a 	mov	r6,zero
    21d4:	01407d04 	movi	r5,500
    21d8:	01020034 	movhi	r4,2048
    21dc:	2100a604 	addi	r4,r4,664
    21e0:	0006a640 	call	6a64 <xTimerCreate>
    21e4:	d0a03695 	stw	r2,-32550(gp)

	/* Initialize semaphores, queues, tasks and scheduler */
	initOSDataStructs();
    21e8:	00021f80 	call	21f8 <initOSDataStructs>
	initCreateTasks();
    21ec:	00023140 	call	2314 <initCreateTasks>
	vTaskStartScheduler();
    21f0:	00050740 	call	5074 <vTaskStartScheduler>

	for(;;);
    21f4:	003fff06 	br	21f4 <__alt_data_end+0xf00021f4>

000021f8 <initOSDataStructs>:
	return;
}

/* This function creates queues and semaphores */
void initOSDataStructs(void)
{
    21f8:	defffe04 	addi	sp,sp,-8
    21fc:	dfc00115 	stw	ra,4(sp)
    2200:	df000015 	stw	fp,0(sp)
    2204:	d839883a 	mov	fp,sp
	/* Create Semaphores */
	semRoc = xSemaphoreCreateMutex();
    2208:	01000044 	movi	r4,1
    220c:	0003e700 	call	3e70 <xQueueCreateMutex>
    2210:	d0a03195 	stw	r2,-32570(gp)
	semTimer = xSemaphoreCreateMutex();
    2214:	01000044 	movi	r4,1
    2218:	0003e700 	call	3e70 <xQueueCreateMutex>
    221c:	d0a02895 	stw	r2,-32606(gp)

	/* Create Queues */
	QFreqData = xQueueCreate( 20, sizeof( double ) );
    2220:	000d883a 	mov	r6,zero
    2224:	01400204 	movi	r5,8
    2228:	01000504 	movi	r4,20
    222c:	0003d980 	call	3d98 <xQueueGenericCreate>
    2230:	d0a03895 	stw	r2,-32542(gp)
	QFreqDataVGA = xQueueCreate( 20, sizeof( double ) );
    2234:	000d883a 	mov	r6,zero
    2238:	01400204 	movi	r5,8
    223c:	01000504 	movi	r4,20
    2240:	0003d980 	call	3d98 <xQueueGenericCreate>
    2244:	d0a03795 	stw	r2,-32546(gp)
	QShedLoad = xQueueCreate( 1, sizeof( sLoadStat ) );
    2248:	000d883a 	mov	r6,zero
    224c:	01400304 	movi	r5,12
    2250:	01000044 	movi	r4,1
    2254:	0003d980 	call	3d98 <xQueueGenericCreate>
    2258:	d0a03495 	stw	r2,-32558(gp)
	QAddLoad = xQueueCreate( 1, sizeof( sLoadStat ) );
    225c:	000d883a 	mov	r6,zero
    2260:	01400304 	movi	r5,12
    2264:	01000044 	movi	r4,1
    2268:	0003d980 	call	3d98 <xQueueGenericCreate>
    226c:	d0a03095 	stw	r2,-32574(gp)
	QAddedLoad = xQueueCreate( 1, sizeof( sHandledLoadStat ) );
    2270:	000d883a 	mov	r6,zero
    2274:	01400204 	movi	r5,8
    2278:	01000044 	movi	r4,1
    227c:	0003d980 	call	3d98 <xQueueGenericCreate>
    2280:	d0a02d95 	stw	r2,-32586(gp)
	QAddedShed = xQueueCreate( 1, sizeof( sHandledLoadStat ) );
    2284:	000d883a 	mov	r6,zero
    2288:	01400204 	movi	r5,8
    228c:	01000044 	movi	r4,1
    2290:	0003d980 	call	3d98 <xQueueGenericCreate>
    2294:	d0a02b95 	stw	r2,-32594(gp)

	QNetworkStat = xQueueCreate( 10, sizeof( int ) );
    2298:	000d883a 	mov	r6,zero
    229c:	01400104 	movi	r5,4
    22a0:	01000284 	movi	r4,10
    22a4:	0003d980 	call	3d98 <xQueueGenericCreate>
    22a8:	d0a02e95 	stw	r2,-32582(gp)
	QSwitch = xQueueCreate( 10, sizeof( unsigned int ) );
    22ac:	000d883a 	mov	r6,zero
    22b0:	01400104 	movi	r5,4
    22b4:	01000284 	movi	r4,10
    22b8:	0003d980 	call	3d98 <xQueueGenericCreate>
    22bc:	d0a02f95 	stw	r2,-32578(gp)
	QBtn = xQueueCreate(100, sizeof(int));
    22c0:	000d883a 	mov	r6,zero
    22c4:	01400104 	movi	r5,4
    22c8:	01001904 	movi	r4,100
    22cc:	0003d980 	call	3d98 <xQueueGenericCreate>
    22d0:	d0a02c95 	stw	r2,-32590(gp)

	QStability = xQueueCreate ( 1, sizeof (int) );
    22d4:	000d883a 	mov	r6,zero
    22d8:	01400104 	movi	r5,4
    22dc:	01000044 	movi	r4,1
    22e0:	0003d980 	call	3d98 <xQueueGenericCreate>
    22e4:	d0a03295 	stw	r2,-32566(gp)

	Q_keyboard = xQueueCreate(10, sizeof (char));
    22e8:	000d883a 	mov	r6,zero
    22ec:	01400044 	movi	r5,1
    22f0:	01000284 	movi	r4,10
    22f4:	0003d980 	call	3d98 <xQueueGenericCreate>
    22f8:	d0a02a95 	stw	r2,-32598(gp)

	return;
    22fc:	0001883a 	nop
}
    2300:	e037883a 	mov	sp,fp
    2304:	dfc00117 	ldw	ra,4(sp)
    2308:	df000017 	ldw	fp,0(sp)
    230c:	dec00204 	addi	sp,sp,8
    2310:	f800283a 	ret

00002314 <initCreateTasks>:

/* This function creates the tasks */
void initCreateTasks(void)
{
    2314:	defffa04 	addi	sp,sp,-24
    2318:	dfc00515 	stw	ra,20(sp)
    231c:	df000415 	stw	fp,16(sp)
    2320:	df000404 	addi	fp,sp,16
	xTaskCreate(vTaskAdd, "Add Task", configMINIMAL_STACK_SIZE, NULL, 4, NULL);
    2324:	d8000315 	stw	zero,12(sp)
    2328:	d8000215 	stw	zero,8(sp)
    232c:	d8000115 	stw	zero,4(sp)
    2330:	00800104 	movi	r2,4
    2334:	d8800015 	stw	r2,0(sp)
    2338:	000f883a 	mov	r7,zero
    233c:	01840004 	movi	r6,4096
    2340:	01420034 	movhi	r5,2048
    2344:	2940a904 	addi	r5,r5,676
    2348:	01000034 	movhi	r4,0
    234c:	2107c904 	addi	r4,r4,7972
    2350:	0004d680 	call	4d68 <xTaskGenericCreate>
	xTaskCreate(vTaskShed, "Shed Task", configMINIMAL_STACK_SIZE, NULL, 4, NULL);
    2354:	d8000315 	stw	zero,12(sp)
    2358:	d8000215 	stw	zero,8(sp)
    235c:	d8000115 	stw	zero,4(sp)
    2360:	00800104 	movi	r2,4
    2364:	d8800015 	stw	r2,0(sp)
    2368:	000f883a 	mov	r7,zero
    236c:	01840004 	movi	r6,4096
    2370:	01420034 	movhi	r5,2048
    2374:	2940ac04 	addi	r5,r5,688
    2378:	01000034 	movhi	r4,0
    237c:	21076504 	addi	r4,r4,7572
    2380:	0004d680 	call	4d68 <xTaskGenericCreate>
	xTaskCreate(vTaskLoadManager, "Load Manager Task", configMINIMAL_STACK_SIZE, NULL, 5, NULL);
    2384:	d8000315 	stw	zero,12(sp)
    2388:	d8000215 	stw	zero,8(sp)
    238c:	d8000115 	stw	zero,4(sp)
    2390:	00800144 	movi	r2,5
    2394:	d8800015 	stw	r2,0(sp)
    2398:	000f883a 	mov	r7,zero
    239c:	01840004 	movi	r6,4096
    23a0:	01420034 	movhi	r5,2048
    23a4:	2940af04 	addi	r5,r5,700
    23a8:	01000034 	movhi	r4,0
    23ac:	2105aa04 	addi	r4,r4,5800
    23b0:	0004d680 	call	4d68 <xTaskGenericCreate>
	xTaskCreate(vTaskSwitchCon, "Switch Controller Task", configMINIMAL_STACK_SIZE, NULL, 3, NULL);
    23b4:	d8000315 	stw	zero,12(sp)
    23b8:	d8000215 	stw	zero,8(sp)
    23bc:	d8000115 	stw	zero,4(sp)
    23c0:	008000c4 	movi	r2,3
    23c4:	d8800015 	stw	r2,0(sp)
    23c8:	000f883a 	mov	r7,zero
    23cc:	01840004 	movi	r6,4096
    23d0:	01420034 	movhi	r5,2048
    23d4:	2940b404 	addi	r5,r5,720
    23d8:	01000034 	movhi	r4,0
    23dc:	21059704 	addi	r4,r4,5724
    23e0:	0004d680 	call	4d68 <xTaskGenericCreate>
	xTaskCreate(PRVGADraw_Task, "PR VGA Draw Task", configMINIMAL_STACK_SIZE, NULL, 6, NULL);
    23e4:	d8000315 	stw	zero,12(sp)
    23e8:	d8000215 	stw	zero,8(sp)
    23ec:	d8000115 	stw	zero,4(sp)
    23f0:	00800184 	movi	r2,6
    23f4:	d8800015 	stw	r2,0(sp)
    23f8:	000f883a 	mov	r7,zero
    23fc:	01840004 	movi	r6,4096
    2400:	01420034 	movhi	r5,2048
    2404:	2940ba04 	addi	r5,r5,744
    2408:	01000034 	movhi	r4,0
    240c:	2100a704 	addi	r4,r4,668
    2410:	0004d680 	call	4d68 <xTaskGenericCreate>
	xTaskCreate(vTaskLCDMode, "LCD Mode Task", configMINIMAL_STACK_SIZE, NULL, 3, NULL);
    2414:	d8000315 	stw	zero,12(sp)
    2418:	d8000215 	stw	zero,8(sp)
    241c:	d8000115 	stw	zero,4(sp)
    2420:	008000c4 	movi	r2,3
    2424:	d8800015 	stw	r2,0(sp)
    2428:	000f883a 	mov	r7,zero
    242c:	01840004 	movi	r6,4096
    2430:	01420034 	movhi	r5,2048
    2434:	2940bf04 	addi	r5,r5,764
    2438:	01000034 	movhi	r4,0
    243c:	21047a04 	addi	r4,r4,4584
    2440:	0004d680 	call	4d68 <xTaskGenericCreate>
	xTaskCreate(vTaskKeyboardHandler, "Keyboard Handler Task", configMINIMAL_STACK_SIZE, NULL, 3, NULL);
    2444:	d8000315 	stw	zero,12(sp)
    2448:	d8000215 	stw	zero,8(sp)
    244c:	d8000115 	stw	zero,4(sp)
    2450:	008000c4 	movi	r2,3
    2454:	d8800015 	stw	r2,0(sp)
    2458:	000f883a 	mov	r7,zero
    245c:	01840004 	movi	r6,4096
    2460:	01420034 	movhi	r5,2048
    2464:	2940c304 	addi	r5,r5,780
    2468:	01000034 	movhi	r4,0
    246c:	2104cc04 	addi	r4,r4,4912
    2470:	0004d680 	call	4d68 <xTaskGenericCreate>

	return;
    2474:	0001883a 	nop
}
    2478:	e037883a 	mov	sp,fp
    247c:	dfc00117 	ldw	ra,4(sp)
    2480:	df000017 	ldw	fp,0(sp)
    2484:	dec00204 	addi	sp,sp,8
    2488:	f800283a 	ret

0000248c <xCoRoutineCreate>:
static void prvCheckDelayedList( void );

/*-----------------------------------------------------------*/

BaseType_t xCoRoutineCreate( crCOROUTINE_CODE pxCoRoutineCode, UBaseType_t uxPriority, UBaseType_t uxIndex )
{
    248c:	defff904 	addi	sp,sp,-28
    2490:	dfc00615 	stw	ra,24(sp)
    2494:	df000515 	stw	fp,20(sp)
    2498:	df000504 	addi	fp,sp,20
    249c:	e13ffd15 	stw	r4,-12(fp)
    24a0:	e17ffe15 	stw	r5,-8(fp)
    24a4:	e1bfff15 	stw	r6,-4(fp)
BaseType_t xReturn;
CRCB_t *pxCoRoutine;

	/* Allocate the memory that will store the co-routine control block. */
	pxCoRoutine = ( CRCB_t * ) pvPortMalloc( sizeof( CRCB_t ) );
    24a8:	01000e04 	movi	r4,56
    24ac:	00031c00 	call	31c0 <pvPortMalloc>
    24b0:	e0bffc15 	stw	r2,-16(fp)
	if( pxCoRoutine )
    24b4:	e0bffc17 	ldw	r2,-16(fp)
    24b8:	10003d26 	beq	r2,zero,25b0 <xCoRoutineCreate+0x124>
	{
		/* If pxCurrentCoRoutine is NULL then this is the first co-routine to
		be created and the co-routine data structures need initialising. */
		if( pxCurrentCoRoutine == NULL )
    24bc:	d0a03b97 	ldw	r2,-32530(gp)
    24c0:	1000031e 	bne	r2,zero,24d0 <xCoRoutineCreate+0x44>
		{
			pxCurrentCoRoutine = pxCoRoutine;
    24c4:	e0bffc17 	ldw	r2,-16(fp)
    24c8:	d0a03b95 	stw	r2,-32530(gp)
			prvInitialiseCoRoutineLists();
    24cc:	00029ac0 	call	29ac <prvInitialiseCoRoutineLists>
		}

		/* Check the priority is within limits. */
		if( uxPriority >= configMAX_CO_ROUTINE_PRIORITIES )
    24d0:	e0bffe17 	ldw	r2,-8(fp)
    24d4:	108000b0 	cmpltui	r2,r2,2
    24d8:	1000021e 	bne	r2,zero,24e4 <xCoRoutineCreate+0x58>
		{
			uxPriority = configMAX_CO_ROUTINE_PRIORITIES - 1;
    24dc:	00800044 	movi	r2,1
    24e0:	e0bffe15 	stw	r2,-8(fp)
		}

		/* Fill out the co-routine control block from the function parameters. */
		pxCoRoutine->uxState = corINITIAL_STATE;
    24e4:	e0bffc17 	ldw	r2,-16(fp)
    24e8:	10000d0d 	sth	zero,52(r2)
		pxCoRoutine->uxPriority = uxPriority;
    24ec:	e0bffc17 	ldw	r2,-16(fp)
    24f0:	e0fffe17 	ldw	r3,-8(fp)
    24f4:	10c00b15 	stw	r3,44(r2)
		pxCoRoutine->uxIndex = uxIndex;
    24f8:	e0bffc17 	ldw	r2,-16(fp)
    24fc:	e0ffff17 	ldw	r3,-4(fp)
    2500:	10c00c15 	stw	r3,48(r2)
		pxCoRoutine->pxCoRoutineFunction = pxCoRoutineCode;
    2504:	e0bffc17 	ldw	r2,-16(fp)
    2508:	e0fffd17 	ldw	r3,-12(fp)
    250c:	10c00015 	stw	r3,0(r2)

		/* Initialise all the other co-routine control block parameters. */
		vListInitialiseItem( &( pxCoRoutine->xGenericListItem ) );
    2510:	e0bffc17 	ldw	r2,-16(fp)
    2514:	10800104 	addi	r2,r2,4
    2518:	1009883a 	mov	r4,r2
    251c:	000365c0 	call	365c <vListInitialiseItem>
		vListInitialiseItem( &( pxCoRoutine->xEventListItem ) );
    2520:	e0bffc17 	ldw	r2,-16(fp)
    2524:	10800604 	addi	r2,r2,24
    2528:	1009883a 	mov	r4,r2
    252c:	000365c0 	call	365c <vListInitialiseItem>

		/* Set the co-routine control block as a link back from the ListItem_t.
		This is so we can get back to the containing CRCB from a generic item
		in a list. */
		listSET_LIST_ITEM_OWNER( &( pxCoRoutine->xGenericListItem ), pxCoRoutine );
    2530:	e0bffc17 	ldw	r2,-16(fp)
    2534:	e0fffc17 	ldw	r3,-16(fp)
    2538:	10c00415 	stw	r3,16(r2)
		listSET_LIST_ITEM_OWNER( &( pxCoRoutine->xEventListItem ), pxCoRoutine );
    253c:	e0bffc17 	ldw	r2,-16(fp)
    2540:	e0fffc17 	ldw	r3,-16(fp)
    2544:	10c00915 	stw	r3,36(r2)

		/* Event lists are always in priority order. */
		listSET_LIST_ITEM_VALUE( &( pxCoRoutine->xEventListItem ), ( ( TickType_t ) configMAX_CO_ROUTINE_PRIORITIES - ( TickType_t ) uxPriority ) );
    2548:	00c00084 	movi	r3,2
    254c:	e0bffe17 	ldw	r2,-8(fp)
    2550:	1887c83a 	sub	r3,r3,r2
    2554:	e0bffc17 	ldw	r2,-16(fp)
    2558:	10c00615 	stw	r3,24(r2)

		/* Now the co-routine has been initialised it can be added to the ready
		list at the correct priority. */
		prvAddCoRoutineToReadyQueue( pxCoRoutine );
    255c:	e0bffc17 	ldw	r2,-16(fp)
    2560:	10800b17 	ldw	r2,44(r2)
    2564:	d0e03c97 	ldw	r3,-32526(gp)
    2568:	1880032e 	bgeu	r3,r2,2578 <xCoRoutineCreate+0xec>
    256c:	e0bffc17 	ldw	r2,-16(fp)
    2570:	10800b17 	ldw	r2,44(r2)
    2574:	d0a03c95 	stw	r2,-32526(gp)
    2578:	e0bffc17 	ldw	r2,-16(fp)
    257c:	10800b17 	ldw	r2,44(r2)
    2580:	10c00524 	muli	r3,r2,20
    2584:	00820034 	movhi	r2,2048
    2588:	108bb504 	addi	r2,r2,11988
    258c:	1887883a 	add	r3,r3,r2
    2590:	e0bffc17 	ldw	r2,-16(fp)
    2594:	10800104 	addi	r2,r2,4
    2598:	100b883a 	mov	r5,r2
    259c:	1809883a 	mov	r4,r3
    25a0:	00036880 	call	3688 <vListInsertEnd>

		xReturn = pdPASS;
    25a4:	00800044 	movi	r2,1
    25a8:	e0bffb15 	stw	r2,-20(fp)
    25ac:	00000206 	br	25b8 <xCoRoutineCreate+0x12c>
	}
	else
	{
		xReturn = errCOULD_NOT_ALLOCATE_REQUIRED_MEMORY;
    25b0:	00bfffc4 	movi	r2,-1
    25b4:	e0bffb15 	stw	r2,-20(fp)
	}

	return xReturn;
    25b8:	e0bffb17 	ldw	r2,-20(fp)
}
    25bc:	e037883a 	mov	sp,fp
    25c0:	dfc00117 	ldw	ra,4(sp)
    25c4:	df000017 	ldw	fp,0(sp)
    25c8:	dec00204 	addi	sp,sp,8
    25cc:	f800283a 	ret

000025d0 <vCoRoutineAddToDelayedList>:
/*-----------------------------------------------------------*/

void vCoRoutineAddToDelayedList( TickType_t xTicksToDelay, List_t *pxEventList )
{
    25d0:	defffb04 	addi	sp,sp,-20
    25d4:	dfc00415 	stw	ra,16(sp)
    25d8:	df000315 	stw	fp,12(sp)
    25dc:	df000304 	addi	fp,sp,12
    25e0:	e13ffe15 	stw	r4,-8(fp)
    25e4:	e17fff15 	stw	r5,-4(fp)
TickType_t xTimeToWake;

	/* Calculate the time to wake - this may overflow but this is
	not a problem. */
	xTimeToWake = xCoRoutineTickCount + xTicksToDelay;
    25e8:	d0e03d97 	ldw	r3,-32522(gp)
    25ec:	e0bffe17 	ldw	r2,-8(fp)
    25f0:	1885883a 	add	r2,r3,r2
    25f4:	e0bffd15 	stw	r2,-12(fp)

	/* We must remove ourselves from the ready list before adding
	ourselves to the blocked list as the same list item is used for
	both lists. */
	( void ) uxListRemove( ( ListItem_t * ) &( pxCurrentCoRoutine->xGenericListItem ) );
    25f8:	d0a03b97 	ldw	r2,-32530(gp)
    25fc:	10800104 	addi	r2,r2,4
    2600:	1009883a 	mov	r4,r2
    2604:	00037ec0 	call	37ec <uxListRemove>

	/* The list item will be inserted in wake time order. */
	listSET_LIST_ITEM_VALUE( &( pxCurrentCoRoutine->xGenericListItem ), xTimeToWake );
    2608:	d0a03b97 	ldw	r2,-32530(gp)
    260c:	e0fffd17 	ldw	r3,-12(fp)
    2610:	10c00115 	stw	r3,4(r2)

	if( xTimeToWake < xCoRoutineTickCount )
    2614:	d0a03d97 	ldw	r2,-32522(gp)
    2618:	e0fffd17 	ldw	r3,-12(fp)
    261c:	1880072e 	bgeu	r3,r2,263c <vCoRoutineAddToDelayedList+0x6c>
	{
		/* Wake time has overflowed.  Place this item in the
		overflow list. */
		vListInsert( ( List_t * ) pxOverflowDelayedCoRoutineList, ( ListItem_t * ) &( pxCurrentCoRoutine->xGenericListItem ) );
    2620:	d0e03a97 	ldw	r3,-32534(gp)
    2624:	d0a03b97 	ldw	r2,-32530(gp)
    2628:	10800104 	addi	r2,r2,4
    262c:	100b883a 	mov	r5,r2
    2630:	1809883a 	mov	r4,r3
    2634:	00037140 	call	3714 <vListInsert>
    2638:	00000606 	br	2654 <vCoRoutineAddToDelayedList+0x84>
	}
	else
	{
		/* The wake time has not overflowed, so we can use the
		current block list. */
		vListInsert( ( List_t * ) pxDelayedCoRoutineList, ( ListItem_t * ) &( pxCurrentCoRoutine->xGenericListItem ) );
    263c:	d0e03997 	ldw	r3,-32538(gp)
    2640:	d0a03b97 	ldw	r2,-32530(gp)
    2644:	10800104 	addi	r2,r2,4
    2648:	100b883a 	mov	r5,r2
    264c:	1809883a 	mov	r4,r3
    2650:	00037140 	call	3714 <vListInsert>
	}

	if( pxEventList )
    2654:	e0bfff17 	ldw	r2,-4(fp)
    2658:	10000526 	beq	r2,zero,2670 <vCoRoutineAddToDelayedList+0xa0>
	{
		/* Also add the co-routine to an event list.  If this is done then the
		function must be called with interrupts disabled. */
		vListInsert( pxEventList, &( pxCurrentCoRoutine->xEventListItem ) );
    265c:	d0a03b97 	ldw	r2,-32530(gp)
    2660:	10800604 	addi	r2,r2,24
    2664:	100b883a 	mov	r5,r2
    2668:	e13fff17 	ldw	r4,-4(fp)
    266c:	00037140 	call	3714 <vListInsert>
	}
}
    2670:	0001883a 	nop
    2674:	e037883a 	mov	sp,fp
    2678:	dfc00117 	ldw	ra,4(sp)
    267c:	df000017 	ldw	fp,0(sp)
    2680:	dec00204 	addi	sp,sp,8
    2684:	f800283a 	ret

00002688 <prvCheckPendingReadyList>:
/*-----------------------------------------------------------*/

static void prvCheckPendingReadyList( void )
{
    2688:	defffb04 	addi	sp,sp,-20
    268c:	dfc00415 	stw	ra,16(sp)
    2690:	df000315 	stw	fp,12(sp)
    2694:	df000304 	addi	fp,sp,12
	/* Are there any co-routines waiting to get moved to the ready list?  These
	are co-routines that have been readied by an ISR.  The ISR cannot access
	the	ready lists itself. */
	while( listLIST_IS_EMPTY( &xPendingReadyCoRoutineList ) == pdFALSE )
    2698:	00002906 	br	2740 <prvCheckPendingReadyList+0xb8>
static ALT_INLINE alt_irq_context ALT_ALWAYS_INLINE 
       alt_irq_disable_all (void)
{
  alt_irq_context context;

  NIOS2_READ_STATUS (context);
    269c:	0005303a 	rdctl	r2,status
    26a0:	e0bffe15 	stw	r2,-8(fp)

  NIOS2_WRITE_STATUS (context & ~NIOS2_STATUS_PIE_MSK);
    26a4:	e0fffe17 	ldw	r3,-8(fp)
    26a8:	00bfff84 	movi	r2,-2
    26ac:	1884703a 	and	r2,r3,r2
    26b0:	1001703a 	wrctl	status,r2
		CRCB_t *pxUnblockedCRCB;

		/* The pending ready list can be accessed by an ISR. */
		portDISABLE_INTERRUPTS();
		{
			pxUnblockedCRCB = ( CRCB_t * ) listGET_OWNER_OF_HEAD_ENTRY( (&xPendingReadyCoRoutineList) );
    26b4:	00820034 	movhi	r2,2048
    26b8:	108bc904 	addi	r2,r2,12068
    26bc:	10800317 	ldw	r2,12(r2)
    26c0:	10800317 	ldw	r2,12(r2)
    26c4:	e0bffd15 	stw	r2,-12(fp)
			( void ) uxListRemove( &( pxUnblockedCRCB->xEventListItem ) );
    26c8:	e0bffd17 	ldw	r2,-12(fp)
    26cc:	10800604 	addi	r2,r2,24
    26d0:	1009883a 	mov	r4,r2
    26d4:	00037ec0 	call	37ec <uxListRemove>
    26d8:	00800044 	movi	r2,1
    26dc:	e0bfff15 	stw	r2,-4(fp)
  status &= ~NIOS2_STATUS_PIE_MSK;
  status |= (context & NIOS2_STATUS_PIE_MSK);
  
  NIOS2_WRITE_STATUS (status);
#else
  NIOS2_WRITE_STATUS (context);
    26e0:	e0bfff17 	ldw	r2,-4(fp)
    26e4:	1001703a 	wrctl	status,r2
		}
		portENABLE_INTERRUPTS();

		( void ) uxListRemove( &( pxUnblockedCRCB->xGenericListItem ) );
    26e8:	e0bffd17 	ldw	r2,-12(fp)
    26ec:	10800104 	addi	r2,r2,4
    26f0:	1009883a 	mov	r4,r2
    26f4:	00037ec0 	call	37ec <uxListRemove>
		prvAddCoRoutineToReadyQueue( pxUnblockedCRCB );
    26f8:	e0bffd17 	ldw	r2,-12(fp)
    26fc:	10800b17 	ldw	r2,44(r2)
    2700:	d0e03c97 	ldw	r3,-32526(gp)
    2704:	1880032e 	bgeu	r3,r2,2714 <prvCheckPendingReadyList+0x8c>
    2708:	e0bffd17 	ldw	r2,-12(fp)
    270c:	10800b17 	ldw	r2,44(r2)
    2710:	d0a03c95 	stw	r2,-32526(gp)
    2714:	e0bffd17 	ldw	r2,-12(fp)
    2718:	10800b17 	ldw	r2,44(r2)
    271c:	10c00524 	muli	r3,r2,20
    2720:	00820034 	movhi	r2,2048
    2724:	108bb504 	addi	r2,r2,11988
    2728:	1887883a 	add	r3,r3,r2
    272c:	e0bffd17 	ldw	r2,-12(fp)
    2730:	10800104 	addi	r2,r2,4
    2734:	100b883a 	mov	r5,r2
    2738:	1809883a 	mov	r4,r3
    273c:	00036880 	call	3688 <vListInsertEnd>
static void prvCheckPendingReadyList( void )
{
	/* Are there any co-routines waiting to get moved to the ready list?  These
	are co-routines that have been readied by an ISR.  The ISR cannot access
	the	ready lists itself. */
	while( listLIST_IS_EMPTY( &xPendingReadyCoRoutineList ) == pdFALSE )
    2740:	00820034 	movhi	r2,2048
    2744:	108bc904 	addi	r2,r2,12068
    2748:	10800017 	ldw	r2,0(r2)
    274c:	103fd31e 	bne	r2,zero,269c <__alt_data_end+0xf000269c>
		portENABLE_INTERRUPTS();

		( void ) uxListRemove( &( pxUnblockedCRCB->xGenericListItem ) );
		prvAddCoRoutineToReadyQueue( pxUnblockedCRCB );
	}
}
    2750:	0001883a 	nop
    2754:	e037883a 	mov	sp,fp
    2758:	dfc00117 	ldw	ra,4(sp)
    275c:	df000017 	ldw	fp,0(sp)
    2760:	dec00204 	addi	sp,sp,8
    2764:	f800283a 	ret

00002768 <prvCheckDelayedList>:
/*-----------------------------------------------------------*/

static void prvCheckDelayedList( void )
{
    2768:	defffa04 	addi	sp,sp,-24
    276c:	dfc00515 	stw	ra,20(sp)
    2770:	df000415 	stw	fp,16(sp)
    2774:	df000404 	addi	fp,sp,16
CRCB_t *pxCRCB;

	xPassedTicks = xTaskGetTickCount() - xLastTickCount;
    2778:	00052cc0 	call	52cc <xTaskGetTickCount>
    277c:	1007883a 	mov	r3,r2
    2780:	d0a03e97 	ldw	r2,-32518(gp)
    2784:	1885c83a 	sub	r2,r3,r2
    2788:	d0a03f95 	stw	r2,-32514(gp)
	while( xPassedTicks )
    278c:	00004206 	br	2898 <prvCheckDelayedList+0x130>
	{
		xCoRoutineTickCount++;
    2790:	d0a03d97 	ldw	r2,-32522(gp)
    2794:	10800044 	addi	r2,r2,1
    2798:	d0a03d95 	stw	r2,-32522(gp)
		xPassedTicks--;
    279c:	d0a03f97 	ldw	r2,-32514(gp)
    27a0:	10bfffc4 	addi	r2,r2,-1
    27a4:	d0a03f95 	stw	r2,-32514(gp)

		/* If the tick count has overflowed we need to swap the ready lists. */
		if( xCoRoutineTickCount == 0 )
    27a8:	d0a03d97 	ldw	r2,-32522(gp)
    27ac:	1000371e 	bne	r2,zero,288c <prvCheckDelayedList+0x124>
		{
			List_t * pxTemp;

			/* Tick count has overflowed so we need to swap the delay lists.  If there are
			any items in pxDelayedCoRoutineList here then there is an error! */
			pxTemp = pxDelayedCoRoutineList;
    27b0:	d0a03997 	ldw	r2,-32538(gp)
    27b4:	e0bffc15 	stw	r2,-16(fp)
			pxDelayedCoRoutineList = pxOverflowDelayedCoRoutineList;
    27b8:	d0a03a97 	ldw	r2,-32534(gp)
    27bc:	d0a03995 	stw	r2,-32538(gp)
			pxOverflowDelayedCoRoutineList = pxTemp;
    27c0:	e0bffc17 	ldw	r2,-16(fp)
    27c4:	d0a03a95 	stw	r2,-32534(gp)
		}

		/* See if this tick has made a timeout expire. */
		while( listLIST_IS_EMPTY( pxDelayedCoRoutineList ) == pdFALSE )
    27c8:	00003006 	br	288c <prvCheckDelayedList+0x124>
		{
			pxCRCB = ( CRCB_t * ) listGET_OWNER_OF_HEAD_ENTRY( pxDelayedCoRoutineList );
    27cc:	d0a03997 	ldw	r2,-32538(gp)
    27d0:	10800317 	ldw	r2,12(r2)
    27d4:	10800317 	ldw	r2,12(r2)
    27d8:	e0bffd15 	stw	r2,-12(fp)

			if( xCoRoutineTickCount < listGET_LIST_ITEM_VALUE( &( pxCRCB->xGenericListItem ) ) )
    27dc:	e0bffd17 	ldw	r2,-12(fp)
    27e0:	10800117 	ldw	r2,4(r2)
    27e4:	d0e03d97 	ldw	r3,-32522(gp)
    27e8:	1880012e 	bgeu	r3,r2,27f0 <prvCheckDelayedList+0x88>
			{
				/* Timeout not yet expired. */
				break;
    27ec:	00002a06 	br	2898 <prvCheckDelayedList+0x130>
static ALT_INLINE alt_irq_context ALT_ALWAYS_INLINE 
       alt_irq_disable_all (void)
{
  alt_irq_context context;

  NIOS2_READ_STATUS (context);
    27f0:	0005303a 	rdctl	r2,status
    27f4:	e0bfff15 	stw	r2,-4(fp)

  NIOS2_WRITE_STATUS (context & ~NIOS2_STATUS_PIE_MSK);
    27f8:	e0ffff17 	ldw	r3,-4(fp)
    27fc:	00bfff84 	movi	r2,-2
    2800:	1884703a 	and	r2,r3,r2
    2804:	1001703a 	wrctl	status,r2
				/* The event could have occurred just before this critical
				section.  If this is the case then the generic list item will
				have been moved to the pending ready list and the following
				line is still valid.  Also the pvContainer parameter will have
				been set to NULL so the following lines are also valid. */
				( void ) uxListRemove( &( pxCRCB->xGenericListItem ) );
    2808:	e0bffd17 	ldw	r2,-12(fp)
    280c:	10800104 	addi	r2,r2,4
    2810:	1009883a 	mov	r4,r2
    2814:	00037ec0 	call	37ec <uxListRemove>

				/* Is the co-routine waiting on an event also? */
				if( pxCRCB->xEventListItem.pvContainer )
    2818:	e0bffd17 	ldw	r2,-12(fp)
    281c:	10800a17 	ldw	r2,40(r2)
    2820:	10000426 	beq	r2,zero,2834 <prvCheckDelayedList+0xcc>
				{
					( void ) uxListRemove( &( pxCRCB->xEventListItem ) );
    2824:	e0bffd17 	ldw	r2,-12(fp)
    2828:	10800604 	addi	r2,r2,24
    282c:	1009883a 	mov	r4,r2
    2830:	00037ec0 	call	37ec <uxListRemove>
    2834:	00800044 	movi	r2,1
    2838:	e0bffe15 	stw	r2,-8(fp)
  status &= ~NIOS2_STATUS_PIE_MSK;
  status |= (context & NIOS2_STATUS_PIE_MSK);
  
  NIOS2_WRITE_STATUS (status);
#else
  NIOS2_WRITE_STATUS (context);
    283c:	e0bffe17 	ldw	r2,-8(fp)
    2840:	1001703a 	wrctl	status,r2
				}
			}
			portENABLE_INTERRUPTS();

			prvAddCoRoutineToReadyQueue( pxCRCB );
    2844:	e0bffd17 	ldw	r2,-12(fp)
    2848:	10800b17 	ldw	r2,44(r2)
    284c:	d0e03c97 	ldw	r3,-32526(gp)
    2850:	1880032e 	bgeu	r3,r2,2860 <prvCheckDelayedList+0xf8>
    2854:	e0bffd17 	ldw	r2,-12(fp)
    2858:	10800b17 	ldw	r2,44(r2)
    285c:	d0a03c95 	stw	r2,-32526(gp)
    2860:	e0bffd17 	ldw	r2,-12(fp)
    2864:	10800b17 	ldw	r2,44(r2)
    2868:	10c00524 	muli	r3,r2,20
    286c:	00820034 	movhi	r2,2048
    2870:	108bb504 	addi	r2,r2,11988
    2874:	1887883a 	add	r3,r3,r2
    2878:	e0bffd17 	ldw	r2,-12(fp)
    287c:	10800104 	addi	r2,r2,4
    2880:	100b883a 	mov	r5,r2
    2884:	1809883a 	mov	r4,r3
    2888:	00036880 	call	3688 <vListInsertEnd>
			pxDelayedCoRoutineList = pxOverflowDelayedCoRoutineList;
			pxOverflowDelayedCoRoutineList = pxTemp;
		}

		/* See if this tick has made a timeout expire. */
		while( listLIST_IS_EMPTY( pxDelayedCoRoutineList ) == pdFALSE )
    288c:	d0a03997 	ldw	r2,-32538(gp)
    2890:	10800017 	ldw	r2,0(r2)
    2894:	103fcd1e 	bne	r2,zero,27cc <__alt_data_end+0xf00027cc>
static void prvCheckDelayedList( void )
{
CRCB_t *pxCRCB;

	xPassedTicks = xTaskGetTickCount() - xLastTickCount;
	while( xPassedTicks )
    2898:	d0a03f97 	ldw	r2,-32514(gp)
    289c:	103fbc1e 	bne	r2,zero,2790 <__alt_data_end+0xf0002790>

			prvAddCoRoutineToReadyQueue( pxCRCB );
		}
	}

	xLastTickCount = xCoRoutineTickCount;
    28a0:	d0a03d97 	ldw	r2,-32522(gp)
    28a4:	d0a03e95 	stw	r2,-32518(gp)
}
    28a8:	0001883a 	nop
    28ac:	e037883a 	mov	sp,fp
    28b0:	dfc00117 	ldw	ra,4(sp)
    28b4:	df000017 	ldw	fp,0(sp)
    28b8:	dec00204 	addi	sp,sp,8
    28bc:	f800283a 	ret

000028c0 <vCoRoutineSchedule>:
/*-----------------------------------------------------------*/

void vCoRoutineSchedule( void )
{
    28c0:	defffd04 	addi	sp,sp,-12
    28c4:	dfc00215 	stw	ra,8(sp)
    28c8:	df000115 	stw	fp,4(sp)
    28cc:	df000104 	addi	fp,sp,4
	/* See if any co-routines readied by events need moving to the ready lists. */
	prvCheckPendingReadyList();
    28d0:	00026880 	call	2688 <prvCheckPendingReadyList>

	/* See if any delayed co-routines have timed out. */
	prvCheckDelayedList();
    28d4:	00027680 	call	2768 <prvCheckDelayedList>

	/* Find the highest priority queue that contains ready co-routines. */
	while( listLIST_IS_EMPTY( &( pxReadyCoRoutineLists[ uxTopCoRoutineReadyPriority ] ) ) )
    28d8:	00000506 	br	28f0 <vCoRoutineSchedule+0x30>
	{
		if( uxTopCoRoutineReadyPriority == 0 )
    28dc:	d0a03c97 	ldw	r2,-32526(gp)
    28e0:	10002c26 	beq	r2,zero,2994 <vCoRoutineSchedule+0xd4>
		{
			/* No more co-routines to check. */
			return;
		}
		--uxTopCoRoutineReadyPriority;
    28e4:	d0a03c97 	ldw	r2,-32526(gp)
    28e8:	10bfffc4 	addi	r2,r2,-1
    28ec:	d0a03c95 	stw	r2,-32526(gp)

	/* See if any delayed co-routines have timed out. */
	prvCheckDelayedList();

	/* Find the highest priority queue that contains ready co-routines. */
	while( listLIST_IS_EMPTY( &( pxReadyCoRoutineLists[ uxTopCoRoutineReadyPriority ] ) ) )
    28f0:	d0e03c97 	ldw	r3,-32526(gp)
    28f4:	00820034 	movhi	r2,2048
    28f8:	108bb504 	addi	r2,r2,11988
    28fc:	18c00524 	muli	r3,r3,20
    2900:	10c5883a 	add	r2,r2,r3
    2904:	10800017 	ldw	r2,0(r2)
    2908:	103ff426 	beq	r2,zero,28dc <__alt_data_end+0xf00028dc>
		--uxTopCoRoutineReadyPriority;
	}

	/* listGET_OWNER_OF_NEXT_ENTRY walks through the list, so the co-routines
	 of the	same priority get an equal share of the processor time. */
	listGET_OWNER_OF_NEXT_ENTRY( pxCurrentCoRoutine, &( pxReadyCoRoutineLists[ uxTopCoRoutineReadyPriority ] ) );
    290c:	d0a03c97 	ldw	r2,-32526(gp)
    2910:	10c00524 	muli	r3,r2,20
    2914:	00820034 	movhi	r2,2048
    2918:	108bb504 	addi	r2,r2,11988
    291c:	1885883a 	add	r2,r3,r2
    2920:	e0bfff15 	stw	r2,-4(fp)
    2924:	e0bfff17 	ldw	r2,-4(fp)
    2928:	10800117 	ldw	r2,4(r2)
    292c:	10c00117 	ldw	r3,4(r2)
    2930:	e0bfff17 	ldw	r2,-4(fp)
    2934:	10c00115 	stw	r3,4(r2)
    2938:	e0bfff17 	ldw	r2,-4(fp)
    293c:	10c00117 	ldw	r3,4(r2)
    2940:	e0bfff17 	ldw	r2,-4(fp)
    2944:	10800204 	addi	r2,r2,8
    2948:	1880051e 	bne	r3,r2,2960 <vCoRoutineSchedule+0xa0>
    294c:	e0bfff17 	ldw	r2,-4(fp)
    2950:	10800117 	ldw	r2,4(r2)
    2954:	10c00117 	ldw	r3,4(r2)
    2958:	e0bfff17 	ldw	r2,-4(fp)
    295c:	10c00115 	stw	r3,4(r2)
    2960:	e0bfff17 	ldw	r2,-4(fp)
    2964:	10800117 	ldw	r2,4(r2)
    2968:	10800317 	ldw	r2,12(r2)
    296c:	d0a03b95 	stw	r2,-32530(gp)

	/* Call the co-routine. */
	( pxCurrentCoRoutine->pxCoRoutineFunction )( pxCurrentCoRoutine, pxCurrentCoRoutine->uxIndex );
    2970:	d0a03b97 	ldw	r2,-32530(gp)
    2974:	10800017 	ldw	r2,0(r2)
    2978:	d1203b97 	ldw	r4,-32530(gp)
    297c:	d0e03b97 	ldw	r3,-32530(gp)
    2980:	18c00c17 	ldw	r3,48(r3)
    2984:	180b883a 	mov	r5,r3
    2988:	103ee83a 	callr	r2

	return;
    298c:	0001883a 	nop
    2990:	00000106 	br	2998 <vCoRoutineSchedule+0xd8>
	while( listLIST_IS_EMPTY( &( pxReadyCoRoutineLists[ uxTopCoRoutineReadyPriority ] ) ) )
	{
		if( uxTopCoRoutineReadyPriority == 0 )
		{
			/* No more co-routines to check. */
			return;
    2994:	0001883a 	nop

	/* Call the co-routine. */
	( pxCurrentCoRoutine->pxCoRoutineFunction )( pxCurrentCoRoutine, pxCurrentCoRoutine->uxIndex );

	return;
}
    2998:	e037883a 	mov	sp,fp
    299c:	dfc00117 	ldw	ra,4(sp)
    29a0:	df000017 	ldw	fp,0(sp)
    29a4:	dec00204 	addi	sp,sp,8
    29a8:	f800283a 	ret

000029ac <prvInitialiseCoRoutineLists>:
/*-----------------------------------------------------------*/

static void prvInitialiseCoRoutineLists( void )
{
    29ac:	defffd04 	addi	sp,sp,-12
    29b0:	dfc00215 	stw	ra,8(sp)
    29b4:	df000115 	stw	fp,4(sp)
    29b8:	df000104 	addi	fp,sp,4
UBaseType_t uxPriority;

	for( uxPriority = 0; uxPriority < configMAX_CO_ROUTINE_PRIORITIES; uxPriority++ )
    29bc:	e03fff15 	stw	zero,-4(fp)
    29c0:	00000a06 	br	29ec <prvInitialiseCoRoutineLists+0x40>
	{
		vListInitialise( ( List_t * ) &( pxReadyCoRoutineLists[ uxPriority ] ) );
    29c4:	e0bfff17 	ldw	r2,-4(fp)
    29c8:	10c00524 	muli	r3,r2,20
    29cc:	00820034 	movhi	r2,2048
    29d0:	108bb504 	addi	r2,r2,11988
    29d4:	1885883a 	add	r2,r3,r2
    29d8:	1009883a 	mov	r4,r2
    29dc:	00035f40 	call	35f4 <vListInitialise>

static void prvInitialiseCoRoutineLists( void )
{
UBaseType_t uxPriority;

	for( uxPriority = 0; uxPriority < configMAX_CO_ROUTINE_PRIORITIES; uxPriority++ )
    29e0:	e0bfff17 	ldw	r2,-4(fp)
    29e4:	10800044 	addi	r2,r2,1
    29e8:	e0bfff15 	stw	r2,-4(fp)
    29ec:	e0bfff17 	ldw	r2,-4(fp)
    29f0:	108000b0 	cmpltui	r2,r2,2
    29f4:	103ff31e 	bne	r2,zero,29c4 <__alt_data_end+0xf00029c4>
	{
		vListInitialise( ( List_t * ) &( pxReadyCoRoutineLists[ uxPriority ] ) );
	}

	vListInitialise( ( List_t * ) &xDelayedCoRoutineList1 );
    29f8:	01020034 	movhi	r4,2048
    29fc:	210bbf04 	addi	r4,r4,12028
    2a00:	00035f40 	call	35f4 <vListInitialise>
	vListInitialise( ( List_t * ) &xDelayedCoRoutineList2 );
    2a04:	01020034 	movhi	r4,2048
    2a08:	210bc404 	addi	r4,r4,12048
    2a0c:	00035f40 	call	35f4 <vListInitialise>
	vListInitialise( ( List_t * ) &xPendingReadyCoRoutineList );
    2a10:	01020034 	movhi	r4,2048
    2a14:	210bc904 	addi	r4,r4,12068
    2a18:	00035f40 	call	35f4 <vListInitialise>

	/* Start with pxDelayedCoRoutineList using list1 and the
	pxOverflowDelayedCoRoutineList using list2. */
	pxDelayedCoRoutineList = &xDelayedCoRoutineList1;
    2a1c:	00820034 	movhi	r2,2048
    2a20:	108bbf04 	addi	r2,r2,12028
    2a24:	d0a03995 	stw	r2,-32538(gp)
	pxOverflowDelayedCoRoutineList = &xDelayedCoRoutineList2;
    2a28:	00820034 	movhi	r2,2048
    2a2c:	108bc404 	addi	r2,r2,12048
    2a30:	d0a03a95 	stw	r2,-32534(gp)
}
    2a34:	0001883a 	nop
    2a38:	e037883a 	mov	sp,fp
    2a3c:	dfc00117 	ldw	ra,4(sp)
    2a40:	df000017 	ldw	fp,0(sp)
    2a44:	dec00204 	addi	sp,sp,8
    2a48:	f800283a 	ret

00002a4c <xCoRoutineRemoveFromEventList>:
/*-----------------------------------------------------------*/

BaseType_t xCoRoutineRemoveFromEventList( const List_t *pxEventList )
{
    2a4c:	defffb04 	addi	sp,sp,-20
    2a50:	dfc00415 	stw	ra,16(sp)
    2a54:	df000315 	stw	fp,12(sp)
    2a58:	df000304 	addi	fp,sp,12
    2a5c:	e13fff15 	stw	r4,-4(fp)
BaseType_t xReturn;

	/* This function is called from within an interrupt.  It can only access
	event lists and the pending ready list.  This function assumes that a
	check has already been made to ensure pxEventList is not empty. */
	pxUnblockedCRCB = ( CRCB_t * ) listGET_OWNER_OF_HEAD_ENTRY( pxEventList );
    2a60:	e0bfff17 	ldw	r2,-4(fp)
    2a64:	10800317 	ldw	r2,12(r2)
    2a68:	10800317 	ldw	r2,12(r2)
    2a6c:	e0bffe15 	stw	r2,-8(fp)
	( void ) uxListRemove( &( pxUnblockedCRCB->xEventListItem ) );
    2a70:	e0bffe17 	ldw	r2,-8(fp)
    2a74:	10800604 	addi	r2,r2,24
    2a78:	1009883a 	mov	r4,r2
    2a7c:	00037ec0 	call	37ec <uxListRemove>
	vListInsertEnd( ( List_t * ) &( xPendingReadyCoRoutineList ), &( pxUnblockedCRCB->xEventListItem ) );
    2a80:	e0bffe17 	ldw	r2,-8(fp)
    2a84:	10800604 	addi	r2,r2,24
    2a88:	100b883a 	mov	r5,r2
    2a8c:	01020034 	movhi	r4,2048
    2a90:	210bc904 	addi	r4,r4,12068
    2a94:	00036880 	call	3688 <vListInsertEnd>

	if( pxUnblockedCRCB->uxPriority >= pxCurrentCoRoutine->uxPriority )
    2a98:	e0bffe17 	ldw	r2,-8(fp)
    2a9c:	10c00b17 	ldw	r3,44(r2)
    2aa0:	d0a03b97 	ldw	r2,-32530(gp)
    2aa4:	10800b17 	ldw	r2,44(r2)
    2aa8:	18800336 	bltu	r3,r2,2ab8 <xCoRoutineRemoveFromEventList+0x6c>
	{
		xReturn = pdTRUE;
    2aac:	00800044 	movi	r2,1
    2ab0:	e0bffd15 	stw	r2,-12(fp)
    2ab4:	00000106 	br	2abc <xCoRoutineRemoveFromEventList+0x70>
	}
	else
	{
		xReturn = pdFALSE;
    2ab8:	e03ffd15 	stw	zero,-12(fp)
	}

	return xReturn;
    2abc:	e0bffd17 	ldw	r2,-12(fp)
}
    2ac0:	e037883a 	mov	sp,fp
    2ac4:	dfc00117 	ldw	ra,4(sp)
    2ac8:	df000017 	ldw	fp,0(sp)
    2acc:	dec00204 	addi	sp,sp,8
    2ad0:	f800283a 	ret

00002ad4 <xEventGroupCreate>:
static BaseType_t prvTestWaitCondition( const EventBits_t uxCurrentEventBits, const EventBits_t uxBitsToWaitFor, const BaseType_t xWaitForAllBits );

/*-----------------------------------------------------------*/

EventGroupHandle_t xEventGroupCreate( void )
{
    2ad4:	defffd04 	addi	sp,sp,-12
    2ad8:	dfc00215 	stw	ra,8(sp)
    2adc:	df000115 	stw	fp,4(sp)
    2ae0:	df000104 	addi	fp,sp,4
EventGroup_t *pxEventBits;

	pxEventBits = pvPortMalloc( sizeof( EventGroup_t ) );
    2ae4:	01000604 	movi	r4,24
    2ae8:	00031c00 	call	31c0 <pvPortMalloc>
    2aec:	e0bfff15 	stw	r2,-4(fp)
	if( pxEventBits != NULL )
    2af0:	e0bfff17 	ldw	r2,-4(fp)
    2af4:	10000626 	beq	r2,zero,2b10 <xEventGroupCreate+0x3c>
	{
		pxEventBits->uxEventBits = 0;
    2af8:	e0bfff17 	ldw	r2,-4(fp)
    2afc:	10000015 	stw	zero,0(r2)
		vListInitialise( &( pxEventBits->xTasksWaitingForBits ) );
    2b00:	e0bfff17 	ldw	r2,-4(fp)
    2b04:	10800104 	addi	r2,r2,4
    2b08:	1009883a 	mov	r4,r2
    2b0c:	00035f40 	call	35f4 <vListInitialise>
	else
	{
		traceEVENT_GROUP_CREATE_FAILED();
	}

	return ( EventGroupHandle_t ) pxEventBits;
    2b10:	e0bfff17 	ldw	r2,-4(fp)
}
    2b14:	e037883a 	mov	sp,fp
    2b18:	dfc00117 	ldw	ra,4(sp)
    2b1c:	df000017 	ldw	fp,0(sp)
    2b20:	dec00204 	addi	sp,sp,8
    2b24:	f800283a 	ret

00002b28 <xEventGroupSync>:
/*-----------------------------------------------------------*/

EventBits_t xEventGroupSync( EventGroupHandle_t xEventGroup, const EventBits_t uxBitsToSet, const EventBits_t uxBitsToWaitFor, TickType_t xTicksToWait )
{
    2b28:	defff504 	addi	sp,sp,-44
    2b2c:	dfc00a15 	stw	ra,40(sp)
    2b30:	df000915 	stw	fp,36(sp)
    2b34:	df000904 	addi	fp,sp,36
    2b38:	e13ffc15 	stw	r4,-16(fp)
    2b3c:	e17ffd15 	stw	r5,-12(fp)
    2b40:	e1bffe15 	stw	r6,-8(fp)
    2b44:	e1ffff15 	stw	r7,-4(fp)
EventBits_t uxOriginalBitValue, uxReturn;
EventGroup_t *pxEventBits = ( EventGroup_t * ) xEventGroup;
    2b48:	e0bffc17 	ldw	r2,-16(fp)
    2b4c:	e0bff815 	stw	r2,-32(fp)
BaseType_t xAlreadyYielded;
BaseType_t xTimeoutOccurred = pdFALSE;
    2b50:	e03ff915 	stw	zero,-28(fp)
	{
		configASSERT( !( ( xTaskGetSchedulerState() == taskSCHEDULER_SUSPENDED ) && ( xTicksToWait != 0 ) ) );
	}
	#endif

	vTaskSuspendAll();
    2b54:	000515c0 	call	515c <vTaskSuspendAll>
	{
		uxOriginalBitValue = pxEventBits->uxEventBits;
    2b58:	e0bff817 	ldw	r2,-32(fp)
    2b5c:	10800017 	ldw	r2,0(r2)
    2b60:	e0bffa15 	stw	r2,-24(fp)

		( void ) xEventGroupSetBits( xEventGroup, uxBitsToSet );
    2b64:	e17ffd17 	ldw	r5,-12(fp)
    2b68:	e13ffc17 	ldw	r4,-16(fp)
    2b6c:	0002ee40 	call	2ee4 <xEventGroupSetBits>

		if( ( ( uxOriginalBitValue | uxBitsToSet ) & uxBitsToWaitFor ) == uxBitsToWaitFor )
    2b70:	e0fffa17 	ldw	r3,-24(fp)
    2b74:	e0bffd17 	ldw	r2,-12(fp)
    2b78:	1886b03a 	or	r3,r3,r2
    2b7c:	e0bffe17 	ldw	r2,-8(fp)
    2b80:	1886703a 	and	r3,r3,r2
    2b84:	e0bffe17 	ldw	r2,-8(fp)
    2b88:	18800d1e 	bne	r3,r2,2bc0 <xEventGroupSync+0x98>
		{
			/* All the rendezvous bits are now set - no need to block. */
			uxReturn = ( uxOriginalBitValue | uxBitsToSet );
    2b8c:	e0fffa17 	ldw	r3,-24(fp)
    2b90:	e0bffd17 	ldw	r2,-12(fp)
    2b94:	1884b03a 	or	r2,r3,r2
    2b98:	e0bff715 	stw	r2,-36(fp)

			/* Rendezvous always clear the bits.  They will have been cleared
			already unless this is the only task in the rendezvous. */
			pxEventBits->uxEventBits &= ~uxBitsToWaitFor;
    2b9c:	e0bff817 	ldw	r2,-32(fp)
    2ba0:	10c00017 	ldw	r3,0(r2)
    2ba4:	e0bffe17 	ldw	r2,-8(fp)
    2ba8:	0084303a 	nor	r2,zero,r2
    2bac:	1886703a 	and	r3,r3,r2
    2bb0:	e0bff817 	ldw	r2,-32(fp)
    2bb4:	10c00015 	stw	r3,0(r2)

			xTicksToWait = 0;
    2bb8:	e03fff15 	stw	zero,-4(fp)
    2bbc:	00000f06 	br	2bfc <xEventGroupSync+0xd4>
		}
		else
		{
			if( xTicksToWait != ( TickType_t ) 0 )
    2bc0:	e0bfff17 	ldw	r2,-4(fp)
    2bc4:	10000a26 	beq	r2,zero,2bf0 <xEventGroupSync+0xc8>
				traceEVENT_GROUP_SYNC_BLOCK( xEventGroup, uxBitsToSet, uxBitsToWaitFor );

				/* Store the bits that the calling task is waiting for in the
				task's event list item so the kernel knows when a match is
				found.  Then enter the blocked state. */
				vTaskPlaceOnUnorderedEventList( &( pxEventBits->xTasksWaitingForBits ), ( uxBitsToWaitFor | eventCLEAR_EVENTS_ON_EXIT_BIT | eventWAIT_FOR_ALL_BITS ), xTicksToWait );
    2bc8:	e0bff817 	ldw	r2,-32(fp)
    2bcc:	10c00104 	addi	r3,r2,4
    2bd0:	e0bffe17 	ldw	r2,-8(fp)
    2bd4:	10814034 	orhi	r2,r2,1280
    2bd8:	e1bfff17 	ldw	r6,-4(fp)
    2bdc:	100b883a 	mov	r5,r2
    2be0:	1809883a 	mov	r4,r3
    2be4:	00056a40 	call	56a4 <vTaskPlaceOnUnorderedEventList>

				/* This assignment is obsolete as uxReturn will get set after
				the task unblocks, but some compilers mistakenly generate a
				warning about uxReturn being returned without being set if the
				assignment is omitted. */
				uxReturn = 0;
    2be8:	e03ff715 	stw	zero,-36(fp)
    2bec:	00000306 	br	2bfc <xEventGroupSync+0xd4>
			}
			else
			{
				/* The rendezvous bits were not set, but no block time was
				specified - just return the current event bit value. */
				uxReturn = pxEventBits->uxEventBits;
    2bf0:	e0bff817 	ldw	r2,-32(fp)
    2bf4:	10800017 	ldw	r2,0(r2)
    2bf8:	e0bff715 	stw	r2,-36(fp)
			}
		}
	}
	xAlreadyYielded = xTaskResumeAll();
    2bfc:	00051880 	call	5188 <xTaskResumeAll>
    2c00:	e0bffb15 	stw	r2,-20(fp)

	if( xTicksToWait != ( TickType_t ) 0 )
    2c04:	e0bfff17 	ldw	r2,-4(fp)
    2c08:	10002026 	beq	r2,zero,2c8c <xEventGroupSync+0x164>
	{
		if( xAlreadyYielded == pdFALSE )
    2c0c:	e0bffb17 	ldw	r2,-20(fp)
    2c10:	1000011e 	bne	r2,zero,2c18 <xEventGroupSync+0xf0>
		{
			portYIELD_WITHIN_API();
    2c14:	003b683a 	trap	0

		/* The task blocked to wait for its required bits to be set - at this
		point either the required bits were set or the block time expired.  If
		the required bits were set they will have been stored in the task's
		event list item, and they should now be retrieved then cleared. */
		uxReturn = uxTaskResetEventItemValue();
    2c18:	000634c0 	call	634c <uxTaskResetEventItemValue>
    2c1c:	e0bff715 	stw	r2,-36(fp)

		if( ( uxReturn & eventUNBLOCKED_DUE_TO_BIT_SET ) == ( EventBits_t ) 0 )
    2c20:	e0bff717 	ldw	r2,-36(fp)
    2c24:	1080802c 	andhi	r2,r2,512
    2c28:	1000131e 	bne	r2,zero,2c78 <xEventGroupSync+0x150>
		{
			/* The task timed out, just return the current event bit value. */
			taskENTER_CRITICAL();
    2c2c:	00062980 	call	6298 <vTaskEnterCritical>
			{
				uxReturn = pxEventBits->uxEventBits;
    2c30:	e0bff817 	ldw	r2,-32(fp)
    2c34:	10800017 	ldw	r2,0(r2)
    2c38:	e0bff715 	stw	r2,-36(fp)

				/* Although the task got here because it timed out before the
				bits it was waiting for were set, it is possible that since it
				unblocked another task has set the bits.  If this is the case
				then it needs to clear the bits before exiting. */
				if( ( uxReturn & uxBitsToWaitFor ) == uxBitsToWaitFor )
    2c3c:	e0fff717 	ldw	r3,-36(fp)
    2c40:	e0bffe17 	ldw	r2,-8(fp)
    2c44:	1886703a 	and	r3,r3,r2
    2c48:	e0bffe17 	ldw	r2,-8(fp)
    2c4c:	1880071e 	bne	r3,r2,2c6c <xEventGroupSync+0x144>
				{
					pxEventBits->uxEventBits &= ~uxBitsToWaitFor;
    2c50:	e0bff817 	ldw	r2,-32(fp)
    2c54:	10c00017 	ldw	r3,0(r2)
    2c58:	e0bffe17 	ldw	r2,-8(fp)
    2c5c:	0084303a 	nor	r2,zero,r2
    2c60:	1886703a 	and	r3,r3,r2
    2c64:	e0bff817 	ldw	r2,-32(fp)
    2c68:	10c00015 	stw	r3,0(r2)
				else
				{
					mtCOVERAGE_TEST_MARKER();
				}
			}
			taskEXIT_CRITICAL();
    2c6c:	00062ec0 	call	62ec <vTaskExitCritical>

			xTimeoutOccurred = pdTRUE;
    2c70:	00800044 	movi	r2,1
    2c74:	e0bff915 	stw	r2,-28(fp)
			/* The task unblocked because the bits were set. */
		}

		/* Control bits might be set as the task had blocked should not be
		returned. */
		uxReturn &= ~eventEVENT_BITS_CONTROL_BYTES;
    2c78:	e0fff717 	ldw	r3,-36(fp)
    2c7c:	00804034 	movhi	r2,256
    2c80:	10bfffc4 	addi	r2,r2,-1
    2c84:	1884703a 	and	r2,r3,r2
    2c88:	e0bff715 	stw	r2,-36(fp)
	}

	traceEVENT_GROUP_SYNC_END( xEventGroup, uxBitsToSet, uxBitsToWaitFor, xTimeoutOccurred );

	return uxReturn;
    2c8c:	e0bff717 	ldw	r2,-36(fp)
}
    2c90:	e037883a 	mov	sp,fp
    2c94:	dfc00117 	ldw	ra,4(sp)
    2c98:	df000017 	ldw	fp,0(sp)
    2c9c:	dec00204 	addi	sp,sp,8
    2ca0:	f800283a 	ret

00002ca4 <xEventGroupWaitBits>:
/*-----------------------------------------------------------*/

EventBits_t xEventGroupWaitBits( EventGroupHandle_t xEventGroup, const EventBits_t uxBitsToWaitFor, const BaseType_t xClearOnExit, const BaseType_t xWaitForAllBits, TickType_t xTicksToWait )
{
    2ca4:	defff304 	addi	sp,sp,-52
    2ca8:	dfc00c15 	stw	ra,48(sp)
    2cac:	df000b15 	stw	fp,44(sp)
    2cb0:	df000b04 	addi	fp,sp,44
    2cb4:	e13ffc15 	stw	r4,-16(fp)
    2cb8:	e17ffd15 	stw	r5,-12(fp)
    2cbc:	e1bffe15 	stw	r6,-8(fp)
    2cc0:	e1ffff15 	stw	r7,-4(fp)
EventGroup_t *pxEventBits = ( EventGroup_t * ) xEventGroup;
    2cc4:	e0bffc17 	ldw	r2,-16(fp)
    2cc8:	e0bff715 	stw	r2,-36(fp)
EventBits_t uxReturn, uxControlBits = 0;
    2ccc:	e03ff615 	stw	zero,-40(fp)
BaseType_t xWaitConditionMet, xAlreadyYielded;
BaseType_t xTimeoutOccurred = pdFALSE;
    2cd0:	e03ff815 	stw	zero,-32(fp)
	{
		configASSERT( !( ( xTaskGetSchedulerState() == taskSCHEDULER_SUSPENDED ) && ( xTicksToWait != 0 ) ) );
	}
	#endif

	vTaskSuspendAll();
    2cd4:	000515c0 	call	515c <vTaskSuspendAll>
	{
		const EventBits_t uxCurrentEventBits = pxEventBits->uxEventBits;
    2cd8:	e0bff717 	ldw	r2,-36(fp)
    2cdc:	10800017 	ldw	r2,0(r2)
    2ce0:	e0bff915 	stw	r2,-28(fp)

		/* Check to see if the wait condition is already met or not. */
		xWaitConditionMet = prvTestWaitCondition( uxCurrentEventBits, uxBitsToWaitFor, xWaitForAllBits );
    2ce4:	e1bfff17 	ldw	r6,-4(fp)
    2ce8:	e17ffd17 	ldw	r5,-12(fp)
    2cec:	e13ff917 	ldw	r4,-28(fp)
    2cf0:	00031500 	call	3150 <prvTestWaitCondition>
    2cf4:	e0bffa15 	stw	r2,-24(fp)

		if( xWaitConditionMet != pdFALSE )
    2cf8:	e0bffa17 	ldw	r2,-24(fp)
    2cfc:	10000d26 	beq	r2,zero,2d34 <xEventGroupWaitBits+0x90>
		{
			/* The wait condition has already been met so there is no need to
			block. */
			uxReturn = uxCurrentEventBits;
    2d00:	e0bff917 	ldw	r2,-28(fp)
    2d04:	e0bff515 	stw	r2,-44(fp)
			xTicksToWait = ( TickType_t ) 0;
    2d08:	e0000215 	stw	zero,8(fp)

			/* Clear the wait bits if requested to do so. */
			if( xClearOnExit != pdFALSE )
    2d0c:	e0bffe17 	ldw	r2,-8(fp)
    2d10:	10002026 	beq	r2,zero,2d94 <xEventGroupWaitBits+0xf0>
			{
				pxEventBits->uxEventBits &= ~uxBitsToWaitFor;
    2d14:	e0bff717 	ldw	r2,-36(fp)
    2d18:	10c00017 	ldw	r3,0(r2)
    2d1c:	e0bffd17 	ldw	r2,-12(fp)
    2d20:	0084303a 	nor	r2,zero,r2
    2d24:	1886703a 	and	r3,r3,r2
    2d28:	e0bff717 	ldw	r2,-36(fp)
    2d2c:	10c00015 	stw	r3,0(r2)
    2d30:	00001806 	br	2d94 <xEventGroupWaitBits+0xf0>
			else
			{
				mtCOVERAGE_TEST_MARKER();
			}
		}
		else if( xTicksToWait == ( TickType_t ) 0 )
    2d34:	e0800217 	ldw	r2,8(fp)
    2d38:	1000031e 	bne	r2,zero,2d48 <xEventGroupWaitBits+0xa4>
		{
			/* The wait condition has not been met, but no block time was
			specified, so just return the current value. */
			uxReturn = uxCurrentEventBits;
    2d3c:	e0bff917 	ldw	r2,-28(fp)
    2d40:	e0bff515 	stw	r2,-44(fp)
    2d44:	00001306 	br	2d94 <xEventGroupWaitBits+0xf0>
		{
			/* The task is going to block to wait for its required bits to be
			set.  uxControlBits are used to remember the specified behaviour of
			this call to xEventGroupWaitBits() - for use when the event bits
			unblock the task. */
			if( xClearOnExit != pdFALSE )
    2d48:	e0bffe17 	ldw	r2,-8(fp)
    2d4c:	10000326 	beq	r2,zero,2d5c <xEventGroupWaitBits+0xb8>
			{
				uxControlBits |= eventCLEAR_EVENTS_ON_EXIT_BIT;
    2d50:	e0bff617 	ldw	r2,-40(fp)
    2d54:	10804034 	orhi	r2,r2,256
    2d58:	e0bff615 	stw	r2,-40(fp)
			else
			{
				mtCOVERAGE_TEST_MARKER();
			}

			if( xWaitForAllBits != pdFALSE )
    2d5c:	e0bfff17 	ldw	r2,-4(fp)
    2d60:	10000326 	beq	r2,zero,2d70 <xEventGroupWaitBits+0xcc>
			{
				uxControlBits |= eventWAIT_FOR_ALL_BITS;
    2d64:	e0bff617 	ldw	r2,-40(fp)
    2d68:	10810034 	orhi	r2,r2,1024
    2d6c:	e0bff615 	stw	r2,-40(fp)
			}

			/* Store the bits that the calling task is waiting for in the
			task's event list item so the kernel knows when a match is
			found.  Then enter the blocked state. */
			vTaskPlaceOnUnorderedEventList( &( pxEventBits->xTasksWaitingForBits ), ( uxBitsToWaitFor | uxControlBits ), xTicksToWait );
    2d70:	e0bff717 	ldw	r2,-36(fp)
    2d74:	11000104 	addi	r4,r2,4
    2d78:	e0fffd17 	ldw	r3,-12(fp)
    2d7c:	e0bff617 	ldw	r2,-40(fp)
    2d80:	1884b03a 	or	r2,r3,r2
    2d84:	e1800217 	ldw	r6,8(fp)
    2d88:	100b883a 	mov	r5,r2
    2d8c:	00056a40 	call	56a4 <vTaskPlaceOnUnorderedEventList>

			/* This is obsolete as it will get set after the task unblocks, but
			some compilers mistakenly generate a warning about the variable
			being returned without being set if it is not done. */
			uxReturn = 0;
    2d90:	e03ff515 	stw	zero,-44(fp)

			traceEVENT_GROUP_WAIT_BITS_BLOCK( xEventGroup, uxBitsToWaitFor );
		}
	}
	xAlreadyYielded = xTaskResumeAll();
    2d94:	00051880 	call	5188 <xTaskResumeAll>
    2d98:	e0bffb15 	stw	r2,-20(fp)

	if( xTicksToWait != ( TickType_t ) 0 )
    2d9c:	e0800217 	ldw	r2,8(fp)
    2da0:	10002126 	beq	r2,zero,2e28 <xEventGroupWaitBits+0x184>
	{
		if( xAlreadyYielded == pdFALSE )
    2da4:	e0bffb17 	ldw	r2,-20(fp)
    2da8:	1000011e 	bne	r2,zero,2db0 <xEventGroupWaitBits+0x10c>
		{
			portYIELD_WITHIN_API();
    2dac:	003b683a 	trap	0

		/* The task blocked to wait for its required bits to be set - at this
		point either the required bits were set or the block time expired.  If
		the required bits were set they will have been stored in the task's
		event list item, and they should now be retrieved then cleared. */
		uxReturn = uxTaskResetEventItemValue();
    2db0:	000634c0 	call	634c <uxTaskResetEventItemValue>
    2db4:	e0bff515 	stw	r2,-44(fp)

		if( ( uxReturn & eventUNBLOCKED_DUE_TO_BIT_SET ) == ( EventBits_t ) 0 )
    2db8:	e0bff517 	ldw	r2,-44(fp)
    2dbc:	1080802c 	andhi	r2,r2,512
    2dc0:	1000141e 	bne	r2,zero,2e14 <xEventGroupWaitBits+0x170>
		{
			taskENTER_CRITICAL();
    2dc4:	00062980 	call	6298 <vTaskEnterCritical>
			{
				/* The task timed out, just return the current event bit value. */
				uxReturn = pxEventBits->uxEventBits;
    2dc8:	e0bff717 	ldw	r2,-36(fp)
    2dcc:	10800017 	ldw	r2,0(r2)
    2dd0:	e0bff515 	stw	r2,-44(fp)

				/* It is possible that the event bits were updated between this
				task leaving the Blocked state and running again. */
				if( prvTestWaitCondition( uxReturn, uxBitsToWaitFor, xWaitForAllBits ) != pdFALSE )
    2dd4:	e1bfff17 	ldw	r6,-4(fp)
    2dd8:	e17ffd17 	ldw	r5,-12(fp)
    2ddc:	e13ff517 	ldw	r4,-44(fp)
    2de0:	00031500 	call	3150 <prvTestWaitCondition>
    2de4:	10000926 	beq	r2,zero,2e0c <xEventGroupWaitBits+0x168>
				{
					if( xClearOnExit != pdFALSE )
    2de8:	e0bffe17 	ldw	r2,-8(fp)
    2dec:	10000726 	beq	r2,zero,2e0c <xEventGroupWaitBits+0x168>
					{
						pxEventBits->uxEventBits &= ~uxBitsToWaitFor;
    2df0:	e0bff717 	ldw	r2,-36(fp)
    2df4:	10c00017 	ldw	r3,0(r2)
    2df8:	e0bffd17 	ldw	r2,-12(fp)
    2dfc:	0084303a 	nor	r2,zero,r2
    2e00:	1886703a 	and	r3,r3,r2
    2e04:	e0bff717 	ldw	r2,-36(fp)
    2e08:	10c00015 	stw	r3,0(r2)
				else
				{
					mtCOVERAGE_TEST_MARKER();
				}
			}
			taskEXIT_CRITICAL();
    2e0c:	00062ec0 	call	62ec <vTaskExitCritical>

			/* Prevent compiler warnings when trace macros are not used. */
			xTimeoutOccurred = pdFALSE;
    2e10:	e03ff815 	stw	zero,-32(fp)
		{
			/* The task unblocked because the bits were set. */
		}

		/* The task blocked so control bits may have been set. */
		uxReturn &= ~eventEVENT_BITS_CONTROL_BYTES;
    2e14:	e0fff517 	ldw	r3,-44(fp)
    2e18:	00804034 	movhi	r2,256
    2e1c:	10bfffc4 	addi	r2,r2,-1
    2e20:	1884703a 	and	r2,r3,r2
    2e24:	e0bff515 	stw	r2,-44(fp)
	}
	traceEVENT_GROUP_WAIT_BITS_END( xEventGroup, uxBitsToWaitFor, xTimeoutOccurred );

	return uxReturn;
    2e28:	e0bff517 	ldw	r2,-44(fp)
}
    2e2c:	e037883a 	mov	sp,fp
    2e30:	dfc00117 	ldw	ra,4(sp)
    2e34:	df000017 	ldw	fp,0(sp)
    2e38:	dec00204 	addi	sp,sp,8
    2e3c:	f800283a 	ret

00002e40 <xEventGroupClearBits>:
/*-----------------------------------------------------------*/

EventBits_t xEventGroupClearBits( EventGroupHandle_t xEventGroup, const EventBits_t uxBitsToClear )
{
    2e40:	defffa04 	addi	sp,sp,-24
    2e44:	dfc00515 	stw	ra,20(sp)
    2e48:	df000415 	stw	fp,16(sp)
    2e4c:	df000404 	addi	fp,sp,16
    2e50:	e13ffe15 	stw	r4,-8(fp)
    2e54:	e17fff15 	stw	r5,-4(fp)
EventGroup_t *pxEventBits = ( EventGroup_t * ) xEventGroup;
    2e58:	e0bffe17 	ldw	r2,-8(fp)
    2e5c:	e0bffc15 	stw	r2,-16(fp)
	/* Check the user is not attempting to clear the bits used by the kernel
	itself. */
	configASSERT( xEventGroup );
	configASSERT( ( uxBitsToClear & eventEVENT_BITS_CONTROL_BYTES ) == 0 );

	taskENTER_CRITICAL();
    2e60:	00062980 	call	6298 <vTaskEnterCritical>
	{
		traceEVENT_GROUP_CLEAR_BITS( xEventGroup, uxBitsToClear );

		/* The value returned is the event group value prior to the bits being
		cleared. */
		uxReturn = pxEventBits->uxEventBits;
    2e64:	e0bffc17 	ldw	r2,-16(fp)
    2e68:	10800017 	ldw	r2,0(r2)
    2e6c:	e0bffd15 	stw	r2,-12(fp)

		/* Clear the bits. */
		pxEventBits->uxEventBits &= ~uxBitsToClear;
    2e70:	e0bffc17 	ldw	r2,-16(fp)
    2e74:	10c00017 	ldw	r3,0(r2)
    2e78:	e0bfff17 	ldw	r2,-4(fp)
    2e7c:	0084303a 	nor	r2,zero,r2
    2e80:	1886703a 	and	r3,r3,r2
    2e84:	e0bffc17 	ldw	r2,-16(fp)
    2e88:	10c00015 	stw	r3,0(r2)
	}
	taskEXIT_CRITICAL();
    2e8c:	00062ec0 	call	62ec <vTaskExitCritical>

	return uxReturn;
    2e90:	e0bffd17 	ldw	r2,-12(fp)
}
    2e94:	e037883a 	mov	sp,fp
    2e98:	dfc00117 	ldw	ra,4(sp)
    2e9c:	df000017 	ldw	fp,0(sp)
    2ea0:	dec00204 	addi	sp,sp,8
    2ea4:	f800283a 	ret

00002ea8 <xEventGroupGetBitsFromISR>:

#endif
/*-----------------------------------------------------------*/

EventBits_t xEventGroupGetBitsFromISR( EventGroupHandle_t xEventGroup )
{
    2ea8:	defffb04 	addi	sp,sp,-20
    2eac:	df000415 	stw	fp,16(sp)
    2eb0:	df000404 	addi	fp,sp,16
    2eb4:	e13fff15 	stw	r4,-4(fp)
UBaseType_t uxSavedInterruptStatus;
EventGroup_t *pxEventBits = ( EventGroup_t * ) xEventGroup;
    2eb8:	e0bfff17 	ldw	r2,-4(fp)
    2ebc:	e0bffc15 	stw	r2,-16(fp)
EventBits_t uxReturn;

	uxSavedInterruptStatus = portSET_INTERRUPT_MASK_FROM_ISR();
    2ec0:	e03ffd15 	stw	zero,-12(fp)
	{
		uxReturn = pxEventBits->uxEventBits;
    2ec4:	e0bffc17 	ldw	r2,-16(fp)
    2ec8:	10800017 	ldw	r2,0(r2)
    2ecc:	e0bffe15 	stw	r2,-8(fp)
	}
	portCLEAR_INTERRUPT_MASK_FROM_ISR( uxSavedInterruptStatus );

	return uxReturn;
    2ed0:	e0bffe17 	ldw	r2,-8(fp)
}
    2ed4:	e037883a 	mov	sp,fp
    2ed8:	df000017 	ldw	fp,0(sp)
    2edc:	dec00104 	addi	sp,sp,4
    2ee0:	f800283a 	ret

00002ee4 <xEventGroupSetBits>:
/*-----------------------------------------------------------*/

EventBits_t xEventGroupSetBits( EventGroupHandle_t xEventGroup, const EventBits_t uxBitsToSet )
{
    2ee4:	defff304 	addi	sp,sp,-52
    2ee8:	dfc00c15 	stw	ra,48(sp)
    2eec:	df000b15 	stw	fp,44(sp)
    2ef0:	df000b04 	addi	fp,sp,44
    2ef4:	e13ffe15 	stw	r4,-8(fp)
    2ef8:	e17fff15 	stw	r5,-4(fp)
ListItem_t *pxListItem, *pxNext;
ListItem_t const *pxListEnd;
List_t *pxList;
EventBits_t uxBitsToClear = 0, uxBitsWaitedFor, uxControlBits;
    2efc:	e03ff615 	stw	zero,-40(fp)
EventGroup_t *pxEventBits = ( EventGroup_t * ) xEventGroup;
    2f00:	e0bffe17 	ldw	r2,-8(fp)
    2f04:	e0bff815 	stw	r2,-32(fp)
BaseType_t xMatchFound = pdFALSE;
    2f08:	e03ff715 	stw	zero,-36(fp)
	/* Check the user is not attempting to set the bits used by the kernel
	itself. */
	configASSERT( xEventGroup );
	configASSERT( ( uxBitsToSet & eventEVENT_BITS_CONTROL_BYTES ) == 0 );

	pxList = &( pxEventBits->xTasksWaitingForBits );
    2f0c:	e0bff817 	ldw	r2,-32(fp)
    2f10:	10800104 	addi	r2,r2,4
    2f14:	e0bff915 	stw	r2,-28(fp)
	pxListEnd = listGET_END_MARKER( pxList ); /*lint !e826 !e740 The mini list structure is used as the list end to save RAM.  This is checked and valid. */
    2f18:	e0bff917 	ldw	r2,-28(fp)
    2f1c:	10800204 	addi	r2,r2,8
    2f20:	e0bffa15 	stw	r2,-24(fp)
	vTaskSuspendAll();
    2f24:	000515c0 	call	515c <vTaskSuspendAll>
	{
		traceEVENT_GROUP_SET_BITS( xEventGroup, uxBitsToSet );

		pxListItem = listGET_HEAD_ENTRY( pxList );
    2f28:	e0bff917 	ldw	r2,-28(fp)
    2f2c:	10800317 	ldw	r2,12(r2)
    2f30:	e0bff515 	stw	r2,-44(fp)

		/* Set the bits. */
		pxEventBits->uxEventBits |= uxBitsToSet;
    2f34:	e0bff817 	ldw	r2,-32(fp)
    2f38:	10c00017 	ldw	r3,0(r2)
    2f3c:	e0bfff17 	ldw	r2,-4(fp)
    2f40:	1886b03a 	or	r3,r3,r2
    2f44:	e0bff817 	ldw	r2,-32(fp)
    2f48:	10c00015 	stw	r3,0(r2)

		/* See if the new bit value should unblock any tasks. */
		while( pxListItem != pxListEnd )
    2f4c:	00003306 	br	301c <xEventGroupSetBits+0x138>
		{
			pxNext = listGET_NEXT( pxListItem );
    2f50:	e0bff517 	ldw	r2,-44(fp)
    2f54:	10800117 	ldw	r2,4(r2)
    2f58:	e0bffb15 	stw	r2,-20(fp)
			uxBitsWaitedFor = listGET_LIST_ITEM_VALUE( pxListItem );
    2f5c:	e0bff517 	ldw	r2,-44(fp)
    2f60:	10800017 	ldw	r2,0(r2)
    2f64:	e0bffc15 	stw	r2,-16(fp)
			xMatchFound = pdFALSE;
    2f68:	e03ff715 	stw	zero,-36(fp)

			/* Split the bits waited for from the control bits. */
			uxControlBits = uxBitsWaitedFor & eventEVENT_BITS_CONTROL_BYTES;
    2f6c:	e0bffc17 	ldw	r2,-16(fp)
    2f70:	10bfc02c 	andhi	r2,r2,65280
    2f74:	e0bffd15 	stw	r2,-12(fp)
			uxBitsWaitedFor &= ~eventEVENT_BITS_CONTROL_BYTES;
    2f78:	e0fffc17 	ldw	r3,-16(fp)
    2f7c:	00804034 	movhi	r2,256
    2f80:	10bfffc4 	addi	r2,r2,-1
    2f84:	1884703a 	and	r2,r3,r2
    2f88:	e0bffc15 	stw	r2,-16(fp)

			if( ( uxControlBits & eventWAIT_FOR_ALL_BITS ) == ( EventBits_t ) 0 )
    2f8c:	e0bffd17 	ldw	r2,-12(fp)
    2f90:	1081002c 	andhi	r2,r2,1024
    2f94:	1000081e 	bne	r2,zero,2fb8 <xEventGroupSetBits+0xd4>
			{
				/* Just looking for single bit being set. */
				if( ( uxBitsWaitedFor & pxEventBits->uxEventBits ) != ( EventBits_t ) 0 )
    2f98:	e0bff817 	ldw	r2,-32(fp)
    2f9c:	10c00017 	ldw	r3,0(r2)
    2fa0:	e0bffc17 	ldw	r2,-16(fp)
    2fa4:	1884703a 	and	r2,r3,r2
    2fa8:	10000b26 	beq	r2,zero,2fd8 <xEventGroupSetBits+0xf4>
				{
					xMatchFound = pdTRUE;
    2fac:	00800044 	movi	r2,1
    2fb0:	e0bff715 	stw	r2,-36(fp)
    2fb4:	00000806 	br	2fd8 <xEventGroupSetBits+0xf4>
				else
				{
					mtCOVERAGE_TEST_MARKER();
				}
			}
			else if( ( uxBitsWaitedFor & pxEventBits->uxEventBits ) == uxBitsWaitedFor )
    2fb8:	e0bff817 	ldw	r2,-32(fp)
    2fbc:	10c00017 	ldw	r3,0(r2)
    2fc0:	e0bffc17 	ldw	r2,-16(fp)
    2fc4:	1886703a 	and	r3,r3,r2
    2fc8:	e0bffc17 	ldw	r2,-16(fp)
    2fcc:	1880021e 	bne	r3,r2,2fd8 <xEventGroupSetBits+0xf4>
			{
				/* All bits are set. */
				xMatchFound = pdTRUE;
    2fd0:	00800044 	movi	r2,1
    2fd4:	e0bff715 	stw	r2,-36(fp)
			else
			{
				/* Need all bits to be set, but not all the bits were set. */
			}

			if( xMatchFound != pdFALSE )
    2fd8:	e0bff717 	ldw	r2,-36(fp)
    2fdc:	10000d26 	beq	r2,zero,3014 <xEventGroupSetBits+0x130>
			{
				/* The bits match.  Should the bits be cleared on exit? */
				if( ( uxControlBits & eventCLEAR_EVENTS_ON_EXIT_BIT ) != ( EventBits_t ) 0 )
    2fe0:	e0bffd17 	ldw	r2,-12(fp)
    2fe4:	1080402c 	andhi	r2,r2,256
    2fe8:	10000426 	beq	r2,zero,2ffc <xEventGroupSetBits+0x118>
				{
					uxBitsToClear |= uxBitsWaitedFor;
    2fec:	e0fff617 	ldw	r3,-40(fp)
    2ff0:	e0bffc17 	ldw	r2,-16(fp)
    2ff4:	1884b03a 	or	r2,r3,r2
    2ff8:	e0bff615 	stw	r2,-40(fp)
				/* Store the actual event flag value in the task's event list
				item before removing the task from the event list.  The
				eventUNBLOCKED_DUE_TO_BIT_SET bit is set so the task knows
				that is was unblocked due to its required bits matching, rather
				than because it timed out. */
				( void ) xTaskRemoveFromUnorderedEventList( pxListItem, pxEventBits->uxEventBits | eventUNBLOCKED_DUE_TO_BIT_SET );
    2ffc:	e0bff817 	ldw	r2,-32(fp)
    3000:	10800017 	ldw	r2,0(r2)
    3004:	10808034 	orhi	r2,r2,512
    3008:	100b883a 	mov	r5,r2
    300c:	e13ff517 	ldw	r4,-44(fp)
    3010:	00058840 	call	5884 <xTaskRemoveFromUnorderedEventList>
			}

			/* Move onto the next list item.  Note pxListItem->pxNext is not
			used here as the list item may have been removed from the event list
			and inserted into the ready/pending reading list. */
			pxListItem = pxNext;
    3014:	e0bffb17 	ldw	r2,-20(fp)
    3018:	e0bff515 	stw	r2,-44(fp)

		/* Set the bits. */
		pxEventBits->uxEventBits |= uxBitsToSet;

		/* See if the new bit value should unblock any tasks. */
		while( pxListItem != pxListEnd )
    301c:	e0fff517 	ldw	r3,-44(fp)
    3020:	e0bffa17 	ldw	r2,-24(fp)
    3024:	18bfca1e 	bne	r3,r2,2f50 <__alt_data_end+0xf0002f50>
			pxListItem = pxNext;
		}

		/* Clear any bits that matched when the eventCLEAR_EVENTS_ON_EXIT_BIT
		bit was set in the control word. */
		pxEventBits->uxEventBits &= ~uxBitsToClear;
    3028:	e0bff817 	ldw	r2,-32(fp)
    302c:	10c00017 	ldw	r3,0(r2)
    3030:	e0bff617 	ldw	r2,-40(fp)
    3034:	0084303a 	nor	r2,zero,r2
    3038:	1886703a 	and	r3,r3,r2
    303c:	e0bff817 	ldw	r2,-32(fp)
    3040:	10c00015 	stw	r3,0(r2)
	}
	( void ) xTaskResumeAll();
    3044:	00051880 	call	5188 <xTaskResumeAll>

	return pxEventBits->uxEventBits;
    3048:	e0bff817 	ldw	r2,-32(fp)
    304c:	10800017 	ldw	r2,0(r2)
}
    3050:	e037883a 	mov	sp,fp
    3054:	dfc00117 	ldw	ra,4(sp)
    3058:	df000017 	ldw	fp,0(sp)
    305c:	dec00204 	addi	sp,sp,8
    3060:	f800283a 	ret

00003064 <vEventGroupDelete>:
/*-----------------------------------------------------------*/

void vEventGroupDelete( EventGroupHandle_t xEventGroup )
{
    3064:	defffb04 	addi	sp,sp,-20
    3068:	dfc00415 	stw	ra,16(sp)
    306c:	df000315 	stw	fp,12(sp)
    3070:	df000304 	addi	fp,sp,12
    3074:	e13fff15 	stw	r4,-4(fp)
EventGroup_t *pxEventBits = ( EventGroup_t * ) xEventGroup;
    3078:	e0bfff17 	ldw	r2,-4(fp)
    307c:	e0bffd15 	stw	r2,-12(fp)
const List_t *pxTasksWaitingForBits = &( pxEventBits->xTasksWaitingForBits );
    3080:	e0bffd17 	ldw	r2,-12(fp)
    3084:	10800104 	addi	r2,r2,4
    3088:	e0bffe15 	stw	r2,-8(fp)

	vTaskSuspendAll();
    308c:	000515c0 	call	515c <vTaskSuspendAll>
	{
		traceEVENT_GROUP_DELETE( xEventGroup );

		while( listCURRENT_LIST_LENGTH( pxTasksWaitingForBits ) > ( UBaseType_t ) 0 )
    3090:	00000506 	br	30a8 <vEventGroupDelete+0x44>
		{
			/* Unblock the task, returning 0 as the event list is being deleted
			and	cannot therefore have any bits set. */
			configASSERT( pxTasksWaitingForBits->xListEnd.pxNext != ( ListItem_t * ) &( pxTasksWaitingForBits->xListEnd ) );
			( void ) xTaskRemoveFromUnorderedEventList( pxTasksWaitingForBits->xListEnd.pxNext, eventUNBLOCKED_DUE_TO_BIT_SET );
    3094:	e0bffe17 	ldw	r2,-8(fp)
    3098:	10800317 	ldw	r2,12(r2)
    309c:	01408034 	movhi	r5,512
    30a0:	1009883a 	mov	r4,r2
    30a4:	00058840 	call	5884 <xTaskRemoveFromUnorderedEventList>

	vTaskSuspendAll();
	{
		traceEVENT_GROUP_DELETE( xEventGroup );

		while( listCURRENT_LIST_LENGTH( pxTasksWaitingForBits ) > ( UBaseType_t ) 0 )
    30a8:	e0bffe17 	ldw	r2,-8(fp)
    30ac:	10800017 	ldw	r2,0(r2)
    30b0:	103ff81e 	bne	r2,zero,3094 <__alt_data_end+0xf0003094>
			and	cannot therefore have any bits set. */
			configASSERT( pxTasksWaitingForBits->xListEnd.pxNext != ( ListItem_t * ) &( pxTasksWaitingForBits->xListEnd ) );
			( void ) xTaskRemoveFromUnorderedEventList( pxTasksWaitingForBits->xListEnd.pxNext, eventUNBLOCKED_DUE_TO_BIT_SET );
		}

		vPortFree( pxEventBits );
    30b4:	e13ffd17 	ldw	r4,-12(fp)
    30b8:	00033400 	call	3340 <vPortFree>
	}
	( void ) xTaskResumeAll();
    30bc:	00051880 	call	5188 <xTaskResumeAll>
}
    30c0:	0001883a 	nop
    30c4:	e037883a 	mov	sp,fp
    30c8:	dfc00117 	ldw	ra,4(sp)
    30cc:	df000017 	ldw	fp,0(sp)
    30d0:	dec00204 	addi	sp,sp,8
    30d4:	f800283a 	ret

000030d8 <vEventGroupSetBitsCallback>:
/*-----------------------------------------------------------*/

/* For internal use only - execute a 'set bits' command that was pended from
an interrupt. */
void vEventGroupSetBitsCallback( void *pvEventGroup, const uint32_t ulBitsToSet )
{
    30d8:	defffc04 	addi	sp,sp,-16
    30dc:	dfc00315 	stw	ra,12(sp)
    30e0:	df000215 	stw	fp,8(sp)
    30e4:	df000204 	addi	fp,sp,8
    30e8:	e13ffe15 	stw	r4,-8(fp)
    30ec:	e17fff15 	stw	r5,-4(fp)
	( void ) xEventGroupSetBits( pvEventGroup, ( EventBits_t ) ulBitsToSet );
    30f0:	e17fff17 	ldw	r5,-4(fp)
    30f4:	e13ffe17 	ldw	r4,-8(fp)
    30f8:	0002ee40 	call	2ee4 <xEventGroupSetBits>
}
    30fc:	0001883a 	nop
    3100:	e037883a 	mov	sp,fp
    3104:	dfc00117 	ldw	ra,4(sp)
    3108:	df000017 	ldw	fp,0(sp)
    310c:	dec00204 	addi	sp,sp,8
    3110:	f800283a 	ret

00003114 <vEventGroupClearBitsCallback>:
/*-----------------------------------------------------------*/

/* For internal use only - execute a 'clear bits' command that was pended from
an interrupt. */
void vEventGroupClearBitsCallback( void *pvEventGroup, const uint32_t ulBitsToClear )
{
    3114:	defffc04 	addi	sp,sp,-16
    3118:	dfc00315 	stw	ra,12(sp)
    311c:	df000215 	stw	fp,8(sp)
    3120:	df000204 	addi	fp,sp,8
    3124:	e13ffe15 	stw	r4,-8(fp)
    3128:	e17fff15 	stw	r5,-4(fp)
	( void ) xEventGroupClearBits( pvEventGroup, ( EventBits_t ) ulBitsToClear );
    312c:	e17fff17 	ldw	r5,-4(fp)
    3130:	e13ffe17 	ldw	r4,-8(fp)
    3134:	0002e400 	call	2e40 <xEventGroupClearBits>
}
    3138:	0001883a 	nop
    313c:	e037883a 	mov	sp,fp
    3140:	dfc00117 	ldw	ra,4(sp)
    3144:	df000017 	ldw	fp,0(sp)
    3148:	dec00204 	addi	sp,sp,8
    314c:	f800283a 	ret

00003150 <prvTestWaitCondition>:
/*-----------------------------------------------------------*/

static BaseType_t prvTestWaitCondition( const EventBits_t uxCurrentEventBits, const EventBits_t uxBitsToWaitFor, const BaseType_t xWaitForAllBits )
{
    3150:	defffb04 	addi	sp,sp,-20
    3154:	df000415 	stw	fp,16(sp)
    3158:	df000404 	addi	fp,sp,16
    315c:	e13ffd15 	stw	r4,-12(fp)
    3160:	e17ffe15 	stw	r5,-8(fp)
    3164:	e1bfff15 	stw	r6,-4(fp)
BaseType_t xWaitConditionMet = pdFALSE;
    3168:	e03ffc15 	stw	zero,-16(fp)

	if( xWaitForAllBits == pdFALSE )
    316c:	e0bfff17 	ldw	r2,-4(fp)
    3170:	1000071e 	bne	r2,zero,3190 <prvTestWaitCondition+0x40>
	{
		/* Task only has to wait for one bit within uxBitsToWaitFor to be
		set.  Is one already set? */
		if( ( uxCurrentEventBits & uxBitsToWaitFor ) != ( EventBits_t ) 0 )
    3174:	e0fffd17 	ldw	r3,-12(fp)
    3178:	e0bffe17 	ldw	r2,-8(fp)
    317c:	1884703a 	and	r2,r3,r2
    3180:	10000a26 	beq	r2,zero,31ac <prvTestWaitCondition+0x5c>
		{
			xWaitConditionMet = pdTRUE;
    3184:	00800044 	movi	r2,1
    3188:	e0bffc15 	stw	r2,-16(fp)
    318c:	00000706 	br	31ac <prvTestWaitCondition+0x5c>
	}
	else
	{
		/* Task has to wait for all the bits in uxBitsToWaitFor to be set.
		Are they set already? */
		if( ( uxCurrentEventBits & uxBitsToWaitFor ) == uxBitsToWaitFor )
    3190:	e0fffd17 	ldw	r3,-12(fp)
    3194:	e0bffe17 	ldw	r2,-8(fp)
    3198:	1886703a 	and	r3,r3,r2
    319c:	e0bffe17 	ldw	r2,-8(fp)
    31a0:	1880021e 	bne	r3,r2,31ac <prvTestWaitCondition+0x5c>
		{
			xWaitConditionMet = pdTRUE;
    31a4:	00800044 	movi	r2,1
    31a8:	e0bffc15 	stw	r2,-16(fp)
		{
			mtCOVERAGE_TEST_MARKER();
		}
	}

	return xWaitConditionMet;
    31ac:	e0bffc17 	ldw	r2,-16(fp)
}
    31b0:	e037883a 	mov	sp,fp
    31b4:	df000017 	ldw	fp,0(sp)
    31b8:	dec00104 	addi	sp,sp,4
    31bc:	f800283a 	ret

000031c0 <pvPortMalloc>:
/* STATIC FUNCTIONS ARE DEFINED AS MACROS TO MINIMIZE THE FUNCTION CALL DEPTH. */

/*-----------------------------------------------------------*/

void *pvPortMalloc( size_t xWantedSize )
{
    31c0:	defff904 	addi	sp,sp,-28
    31c4:	dfc00615 	stw	ra,24(sp)
    31c8:	df000515 	stw	fp,20(sp)
    31cc:	df000504 	addi	fp,sp,20
    31d0:	e13fff15 	stw	r4,-4(fp)
xBlockLink *pxBlock, *pxPreviousBlock, *pxNewBlockLink;
void *pvReturn = NULL;
    31d4:	e03ffd15 	stw	zero,-12(fp)

        vTaskSuspendAll();
    31d8:	000515c0 	call	515c <vTaskSuspendAll>
        {
                /* If this is the first call to malloc then the heap will require
                initialisation to setup the list of free blocks. */
                if( pxEnd == NULL )
    31dc:	d0a04297 	ldw	r2,-32502(gp)
    31e0:	1000011e 	bne	r2,zero,31e8 <pvPortMalloc+0x28>
                {
                        prvHeapInit();
    31e4:	00034000 	call	3400 <prvHeapInit>
                }

                /* The wanted size is increased so it can contain a xBlockLink
                structure in addition to the requested amount of bytes. */
                if( xWantedSize > 0 )
    31e8:	e0bfff17 	ldw	r2,-4(fp)
    31ec:	10000d26 	beq	r2,zero,3224 <pvPortMalloc+0x64>
                {
                        xWantedSize += heapSTRUCT_SIZE;
    31f0:	00800304 	movi	r2,12
    31f4:	10bfffcc 	andi	r2,r2,65535
    31f8:	e0ffff17 	ldw	r3,-4(fp)
    31fc:	1885883a 	add	r2,r3,r2
    3200:	e0bfff15 	stw	r2,-4(fp)

                        /* Ensure that blocks are always aligned to the required number of
                        bytes. */
                        if( xWantedSize & portBYTE_ALIGNMENT_MASK )
    3204:	e0bfff17 	ldw	r2,-4(fp)
    3208:	108000cc 	andi	r2,r2,3
    320c:	10000526 	beq	r2,zero,3224 <pvPortMalloc+0x64>
                        {
                                /* Byte alignment required. */
                                xWantedSize += ( portBYTE_ALIGNMENT - ( xWantedSize & portBYTE_ALIGNMENT_MASK ) );
    3210:	e0ffff17 	ldw	r3,-4(fp)
    3214:	00bfff04 	movi	r2,-4
    3218:	1884703a 	and	r2,r3,r2
    321c:	10800104 	addi	r2,r2,4
    3220:	e0bfff15 	stw	r2,-4(fp)
                        }
                }

                if( ( xWantedSize > 0 ) && ( xWantedSize < xTotalHeapSize ) )
    3224:	e0bfff17 	ldw	r2,-4(fp)
    3228:	10003e26 	beq	r2,zero,3324 <pvPortMalloc+0x164>
    322c:	00800234 	movhi	r2,8
    3230:	10b40004 	addi	r2,r2,-12288
    3234:	e0ffff17 	ldw	r3,-4(fp)
    3238:	18803a2e 	bgeu	r3,r2,3324 <pvPortMalloc+0x164>
                {
                        /* Traverse the list from the start     (lowest address) block until one
                        of adequate size is found. */
                        pxPreviousBlock = &xStart;
    323c:	d0a04084 	addi	r2,gp,-32510
    3240:	e0bffc15 	stw	r2,-16(fp)
                        pxBlock = xStart.pxNextFreeBlock;
    3244:	d0a04097 	ldw	r2,-32510(gp)
    3248:	e0bffb15 	stw	r2,-20(fp)
                        while( ( pxBlock->xBlockSize < xWantedSize ) && ( pxBlock->pxNextFreeBlock != NULL ) )
    324c:	00000506 	br	3264 <pvPortMalloc+0xa4>
                        {
                                pxPreviousBlock = pxBlock;
    3250:	e0bffb17 	ldw	r2,-20(fp)
    3254:	e0bffc15 	stw	r2,-16(fp)
                                pxBlock = pxBlock->pxNextFreeBlock;
    3258:	e0bffb17 	ldw	r2,-20(fp)
    325c:	10800017 	ldw	r2,0(r2)
    3260:	e0bffb15 	stw	r2,-20(fp)
                {
                        /* Traverse the list from the start     (lowest address) block until one
                        of adequate size is found. */
                        pxPreviousBlock = &xStart;
                        pxBlock = xStart.pxNextFreeBlock;
                        while( ( pxBlock->xBlockSize < xWantedSize ) && ( pxBlock->pxNextFreeBlock != NULL ) )
    3264:	e0bffb17 	ldw	r2,-20(fp)
    3268:	10c00117 	ldw	r3,4(r2)
    326c:	e0bfff17 	ldw	r2,-4(fp)
    3270:	1880032e 	bgeu	r3,r2,3280 <pvPortMalloc+0xc0>
    3274:	e0bffb17 	ldw	r2,-20(fp)
    3278:	10800017 	ldw	r2,0(r2)
    327c:	103ff41e 	bne	r2,zero,3250 <__alt_data_end+0xf0003250>
                                pxBlock = pxBlock->pxNextFreeBlock;
                        }

                        /* If the end marker was reached then a block of adequate size was
                        not found. */
                        if( pxBlock != pxEnd )
    3280:	d0a04297 	ldw	r2,-32502(gp)
    3284:	e0fffb17 	ldw	r3,-20(fp)
    3288:	18802626 	beq	r3,r2,3324 <pvPortMalloc+0x164>
                        {
                                /* Return the memory space - jumping over the xBlockLink structure
                                at its start. */
                                pvReturn = ( void * ) ( ( ( unsigned char * ) pxPreviousBlock->pxNextFreeBlock ) + heapSTRUCT_SIZE );
    328c:	e0bffc17 	ldw	r2,-16(fp)
    3290:	10c00017 	ldw	r3,0(r2)
    3294:	00800304 	movi	r2,12
    3298:	10bfffcc 	andi	r2,r2,65535
    329c:	1885883a 	add	r2,r3,r2
    32a0:	e0bffd15 	stw	r2,-12(fp)

                                /* This block is being returned for use so must be taken out of
                                the     list of free blocks. */
                                pxPreviousBlock->pxNextFreeBlock = pxBlock->pxNextFreeBlock;
    32a4:	e0bffb17 	ldw	r2,-20(fp)
    32a8:	10c00017 	ldw	r3,0(r2)
    32ac:	e0bffc17 	ldw	r2,-16(fp)
    32b0:	10c00015 	stw	r3,0(r2)

                                /* If the block is larger than required it can be split into two. */
                                if( ( pxBlock->xBlockSize - xWantedSize ) > heapMINIMUM_BLOCK_SIZE )
    32b4:	e0bffb17 	ldw	r2,-20(fp)
    32b8:	10c00117 	ldw	r3,4(r2)
    32bc:	e0bfff17 	ldw	r2,-4(fp)
    32c0:	1887c83a 	sub	r3,r3,r2
    32c4:	00800304 	movi	r2,12
    32c8:	10bfffcc 	andi	r2,r2,65535
    32cc:	1085883a 	add	r2,r2,r2
    32d0:	10c00f2e 	bgeu	r2,r3,3310 <pvPortMalloc+0x150>
                                {
                                        /* This block is to be split into two.  Create a new block
                                        following the number of bytes requested. The void cast is
                                        used to prevent byte alignment warnings from the compiler. */
                                        pxNewBlockLink = ( void * ) ( ( ( unsigned char * ) pxBlock ) + xWantedSize );
    32d4:	e0fffb17 	ldw	r3,-20(fp)
    32d8:	e0bfff17 	ldw	r2,-4(fp)
    32dc:	1885883a 	add	r2,r3,r2
    32e0:	e0bffe15 	stw	r2,-8(fp)

                                        /* Calculate the sizes of two blocks split from the single
                                        block. */
                                        pxNewBlockLink->xBlockSize = pxBlock->xBlockSize - xWantedSize;
    32e4:	e0bffb17 	ldw	r2,-20(fp)
    32e8:	10c00117 	ldw	r3,4(r2)
    32ec:	e0bfff17 	ldw	r2,-4(fp)
    32f0:	1887c83a 	sub	r3,r3,r2
    32f4:	e0bffe17 	ldw	r2,-8(fp)
    32f8:	10c00115 	stw	r3,4(r2)
                                        pxBlock->xBlockSize = xWantedSize;
    32fc:	e0bffb17 	ldw	r2,-20(fp)
    3300:	e0ffff17 	ldw	r3,-4(fp)
    3304:	10c00115 	stw	r3,4(r2)

                                        /* Insert the new block into the list of free blocks. */
                                        prvInsertBlockIntoFreeList( ( pxNewBlockLink ) );
    3308:	e13ffe17 	ldw	r4,-8(fp)
    330c:	00034c00 	call	34c0 <prvInsertBlockIntoFreeList>
                                }

                                xFreeBytesRemaining -= pxBlock->xBlockSize;
    3310:	d0e00797 	ldw	r3,-32738(gp)
    3314:	e0bffb17 	ldw	r2,-20(fp)
    3318:	10800117 	ldw	r2,4(r2)
    331c:	1885c83a 	sub	r2,r3,r2
    3320:	d0a00795 	stw	r2,-32738(gp)
                        }
                }
        }
        xTaskResumeAll();
    3324:	00051880 	call	5188 <xTaskResumeAll>
                        vApplicationMallocFailedHook();
                }
        }
        #endif

        return pvReturn;
    3328:	e0bffd17 	ldw	r2,-12(fp)
}
    332c:	e037883a 	mov	sp,fp
    3330:	dfc00117 	ldw	ra,4(sp)
    3334:	df000017 	ldw	fp,0(sp)
    3338:	dec00204 	addi	sp,sp,8
    333c:	f800283a 	ret

00003340 <vPortFree>:
/*-----------------------------------------------------------*/

void vPortFree( void *pv )
{
    3340:	defffb04 	addi	sp,sp,-20
    3344:	dfc00415 	stw	ra,16(sp)
    3348:	df000315 	stw	fp,12(sp)
    334c:	df000304 	addi	fp,sp,12
    3350:	e13fff15 	stw	r4,-4(fp)
unsigned char *puc = ( unsigned char * ) pv;
    3354:	e0bfff17 	ldw	r2,-4(fp)
    3358:	e0bffd15 	stw	r2,-12(fp)
xBlockLink *pxLink;

        if( pv != NULL )
    335c:	e0bfff17 	ldw	r2,-4(fp)
    3360:	10001126 	beq	r2,zero,33a8 <vPortFree+0x68>
        {
                /* The memory being freed will have an xBlockLink structure immediately
                before it. */
                puc -= heapSTRUCT_SIZE;
    3364:	00800304 	movi	r2,12
    3368:	10bfffcc 	andi	r2,r2,65535
    336c:	0085c83a 	sub	r2,zero,r2
    3370:	e0fffd17 	ldw	r3,-12(fp)
    3374:	1885883a 	add	r2,r3,r2
    3378:	e0bffd15 	stw	r2,-12(fp)

                /* This casting is to keep the compiler from issuing warnings. */
                pxLink = ( void * ) puc;
    337c:	e0bffd17 	ldw	r2,-12(fp)
    3380:	e0bffe15 	stw	r2,-8(fp)

                vTaskSuspendAll();
    3384:	000515c0 	call	515c <vTaskSuspendAll>
                {
                        /* Add this block to the list of free blocks. */
                        xFreeBytesRemaining += pxLink->xBlockSize;
    3388:	e0bffe17 	ldw	r2,-8(fp)
    338c:	10c00117 	ldw	r3,4(r2)
    3390:	d0a00797 	ldw	r2,-32738(gp)
    3394:	1885883a 	add	r2,r3,r2
    3398:	d0a00795 	stw	r2,-32738(gp)
                        prvInsertBlockIntoFreeList( ( ( xBlockLink * ) pxLink ) );
    339c:	e13ffe17 	ldw	r4,-8(fp)
    33a0:	00034c00 	call	34c0 <prvInsertBlockIntoFreeList>
                }
                xTaskResumeAll();
    33a4:	00051880 	call	5188 <xTaskResumeAll>
        }
}
    33a8:	0001883a 	nop
    33ac:	e037883a 	mov	sp,fp
    33b0:	dfc00117 	ldw	ra,4(sp)
    33b4:	df000017 	ldw	fp,0(sp)
    33b8:	dec00204 	addi	sp,sp,8
    33bc:	f800283a 	ret

000033c0 <xPortGetFreeHeapSize>:
/*-----------------------------------------------------------*/

size_t xPortGetFreeHeapSize( void )
{
    33c0:	deffff04 	addi	sp,sp,-4
    33c4:	df000015 	stw	fp,0(sp)
    33c8:	d839883a 	mov	fp,sp
        return xFreeBytesRemaining;
    33cc:	d0a00797 	ldw	r2,-32738(gp)
}
    33d0:	e037883a 	mov	sp,fp
    33d4:	df000017 	ldw	fp,0(sp)
    33d8:	dec00104 	addi	sp,sp,4
    33dc:	f800283a 	ret

000033e0 <vPortInitialiseBlocks>:
/*-----------------------------------------------------------*/

void vPortInitialiseBlocks( void )
{
    33e0:	deffff04 	addi	sp,sp,-4
    33e4:	df000015 	stw	fp,0(sp)
    33e8:	d839883a 	mov	fp,sp
        /* This just exists to keep the linker quiet. */
}
    33ec:	0001883a 	nop
    33f0:	e037883a 	mov	sp,fp
    33f4:	df000017 	ldw	fp,0(sp)
    33f8:	dec00104 	addi	sp,sp,4
    33fc:	f800283a 	ret

00003400 <prvHeapInit>:
/*-----------------------------------------------------------*/

static void prvHeapInit( void )
{
    3400:	defffd04 	addi	sp,sp,-12
    3404:	df000215 	stw	fp,8(sp)
    3408:	df000204 	addi	fp,sp,8
        /* Ensure the start of the heap is aligned. */
        configASSERT( ( ( ( unsigned long ) xHeap.ucHeap ) & ( ( unsigned long ) portBYTE_ALIGNMENT_MASK ) ) == 0UL );

        /* xStart is used to hold a pointer to the first item in the list of free
        blocks.  The void cast is used to prevent compiler warnings. */
        xStart.pxNextFreeBlock = ( void * ) xHeap.ucHeap;
    340c:	00820034 	movhi	r2,2048
    3410:	108bce04 	addi	r2,r2,12088
    3414:	d0a04095 	stw	r2,-32510(gp)
        xStart.xBlockSize = ( size_t ) 0;
    3418:	d0204195 	stw	zero,-32506(gp)

        /* pxEnd is used to mark the end of the list of free blocks and is inserted
        at the end of the heap space. */
        pucHeapEnd = xHeap.ucHeap + xTotalHeapSize;
    341c:	00c00234 	movhi	r3,8
    3420:	18f40004 	addi	r3,r3,-12288
    3424:	00820034 	movhi	r2,2048
    3428:	108bce04 	addi	r2,r2,12088
    342c:	1885883a 	add	r2,r3,r2
    3430:	e0bffe15 	stw	r2,-8(fp)
        pucHeapEnd -= heapSTRUCT_SIZE;
    3434:	00800304 	movi	r2,12
    3438:	10bfffcc 	andi	r2,r2,65535
    343c:	0085c83a 	sub	r2,zero,r2
    3440:	e0fffe17 	ldw	r3,-8(fp)
    3444:	1885883a 	add	r2,r3,r2
    3448:	e0bffe15 	stw	r2,-8(fp)
        pxEnd = ( void * ) pucHeapEnd;
    344c:	e0bffe17 	ldw	r2,-8(fp)
    3450:	d0a04295 	stw	r2,-32502(gp)
        configASSERT( ( ( ( unsigned long ) pxEnd ) & ( ( unsigned long ) portBYTE_ALIGNMENT_MASK ) ) == 0UL );
        pxEnd->xBlockSize = 0;
    3454:	d0a04297 	ldw	r2,-32502(gp)
    3458:	10000115 	stw	zero,4(r2)
        pxEnd->pxNextFreeBlock = NULL;
    345c:	d0a04297 	ldw	r2,-32502(gp)
    3460:	10000015 	stw	zero,0(r2)

        /* To start with there is a single free block that is sized to take up the
        entire heap space, minus the space taken by pxEnd. */
        pxFirstFreeBlock = ( void * ) xHeap.ucHeap;
    3464:	00820034 	movhi	r2,2048
    3468:	108bce04 	addi	r2,r2,12088
    346c:	e0bfff15 	stw	r2,-4(fp)
        pxFirstFreeBlock->xBlockSize = xTotalHeapSize - heapSTRUCT_SIZE;
    3470:	00800234 	movhi	r2,8
    3474:	10b40004 	addi	r2,r2,-12288
    3478:	00c00304 	movi	r3,12
    347c:	18ffffcc 	andi	r3,r3,65535
    3480:	10c7c83a 	sub	r3,r2,r3
    3484:	e0bfff17 	ldw	r2,-4(fp)
    3488:	10c00115 	stw	r3,4(r2)
        pxFirstFreeBlock->pxNextFreeBlock = pxEnd;
    348c:	d0e04297 	ldw	r3,-32502(gp)
    3490:	e0bfff17 	ldw	r2,-4(fp)
    3494:	10c00015 	stw	r3,0(r2)

        /* The heap now contains pxEnd. */
        xFreeBytesRemaining -= heapSTRUCT_SIZE;
    3498:	d0e00797 	ldw	r3,-32738(gp)
    349c:	00800304 	movi	r2,12
    34a0:	10bfffcc 	andi	r2,r2,65535
    34a4:	1885c83a 	sub	r2,r3,r2
    34a8:	d0a00795 	stw	r2,-32738(gp)
}
    34ac:	0001883a 	nop
    34b0:	e037883a 	mov	sp,fp
    34b4:	df000017 	ldw	fp,0(sp)
    34b8:	dec00104 	addi	sp,sp,4
    34bc:	f800283a 	ret

000034c0 <prvInsertBlockIntoFreeList>:
/*-----------------------------------------------------------*/

static void prvInsertBlockIntoFreeList( xBlockLink *pxBlockToInsert )
{
    34c0:	defffc04 	addi	sp,sp,-16
    34c4:	df000315 	stw	fp,12(sp)
    34c8:	df000304 	addi	fp,sp,12
    34cc:	e13fff15 	stw	r4,-4(fp)
xBlockLink *pxIterator;
unsigned char *puc;

        /* Iterate through the list until a block is found that has a higher address
        than the block being inserted. */
        for( pxIterator = &xStart; pxIterator->pxNextFreeBlock < pxBlockToInsert; pxIterator = pxIterator->pxNextFreeBlock )
    34d0:	d0a04084 	addi	r2,gp,-32510
    34d4:	e0bffd15 	stw	r2,-12(fp)
    34d8:	00000306 	br	34e8 <prvInsertBlockIntoFreeList+0x28>
    34dc:	e0bffd17 	ldw	r2,-12(fp)
    34e0:	10800017 	ldw	r2,0(r2)
    34e4:	e0bffd15 	stw	r2,-12(fp)
    34e8:	e0bffd17 	ldw	r2,-12(fp)
    34ec:	10c00017 	ldw	r3,0(r2)
    34f0:	e0bfff17 	ldw	r2,-4(fp)
    34f4:	18bff936 	bltu	r3,r2,34dc <__alt_data_end+0xf00034dc>
                /* Nothing to do here, just iterate to the right position. */
        }

        /* Do the block being inserted, and the block it is being inserted after
        make a contiguous block of memory? */
        puc = ( unsigned char * ) pxIterator;
    34f8:	e0bffd17 	ldw	r2,-12(fp)
    34fc:	e0bffe15 	stw	r2,-8(fp)
        if( ( puc + pxIterator->xBlockSize ) == ( unsigned char * ) pxBlockToInsert )
    3500:	e0bffd17 	ldw	r2,-12(fp)
    3504:	10800117 	ldw	r2,4(r2)
    3508:	e0fffe17 	ldw	r3,-8(fp)
    350c:	1887883a 	add	r3,r3,r2
    3510:	e0bfff17 	ldw	r2,-4(fp)
    3514:	1880091e 	bne	r3,r2,353c <prvInsertBlockIntoFreeList+0x7c>
        {
                pxIterator->xBlockSize += pxBlockToInsert->xBlockSize;
    3518:	e0bffd17 	ldw	r2,-12(fp)
    351c:	10c00117 	ldw	r3,4(r2)
    3520:	e0bfff17 	ldw	r2,-4(fp)
    3524:	10800117 	ldw	r2,4(r2)
    3528:	1887883a 	add	r3,r3,r2
    352c:	e0bffd17 	ldw	r2,-12(fp)
    3530:	10c00115 	stw	r3,4(r2)
                pxBlockToInsert = pxIterator;
    3534:	e0bffd17 	ldw	r2,-12(fp)
    3538:	e0bfff15 	stw	r2,-4(fp)
        }

        /* Do the block being inserted, and the block it is being inserted before
        make a contiguous block of memory? */
        puc = ( unsigned char * ) pxBlockToInsert;
    353c:	e0bfff17 	ldw	r2,-4(fp)
    3540:	e0bffe15 	stw	r2,-8(fp)
        if( ( puc + pxBlockToInsert->xBlockSize ) == ( unsigned char * ) pxIterator->pxNextFreeBlock )
    3544:	e0bfff17 	ldw	r2,-4(fp)
    3548:	10800117 	ldw	r2,4(r2)
    354c:	e0fffe17 	ldw	r3,-8(fp)
    3550:	1887883a 	add	r3,r3,r2
    3554:	e0bffd17 	ldw	r2,-12(fp)
    3558:	10800017 	ldw	r2,0(r2)
    355c:	1880161e 	bne	r3,r2,35b8 <prvInsertBlockIntoFreeList+0xf8>
        {
                if( pxIterator->pxNextFreeBlock != pxEnd )
    3560:	e0bffd17 	ldw	r2,-12(fp)
    3564:	10c00017 	ldw	r3,0(r2)
    3568:	d0a04297 	ldw	r2,-32502(gp)
    356c:	18800e26 	beq	r3,r2,35a8 <prvInsertBlockIntoFreeList+0xe8>
                {
                        /* Form one big block from the two blocks. */
                        pxBlockToInsert->xBlockSize += pxIterator->pxNextFreeBlock->xBlockSize;
    3570:	e0bfff17 	ldw	r2,-4(fp)
    3574:	10c00117 	ldw	r3,4(r2)
    3578:	e0bffd17 	ldw	r2,-12(fp)
    357c:	10800017 	ldw	r2,0(r2)
    3580:	10800117 	ldw	r2,4(r2)
    3584:	1887883a 	add	r3,r3,r2
    3588:	e0bfff17 	ldw	r2,-4(fp)
    358c:	10c00115 	stw	r3,4(r2)
                        pxBlockToInsert->pxNextFreeBlock = pxIterator->pxNextFreeBlock->pxNextFreeBlock;
    3590:	e0bffd17 	ldw	r2,-12(fp)
    3594:	10800017 	ldw	r2,0(r2)
    3598:	10c00017 	ldw	r3,0(r2)
    359c:	e0bfff17 	ldw	r2,-4(fp)
    35a0:	10c00015 	stw	r3,0(r2)
    35a4:	00000806 	br	35c8 <prvInsertBlockIntoFreeList+0x108>
                }
                else
                {
                        pxBlockToInsert->pxNextFreeBlock = pxEnd;
    35a8:	d0e04297 	ldw	r3,-32502(gp)
    35ac:	e0bfff17 	ldw	r2,-4(fp)
    35b0:	10c00015 	stw	r3,0(r2)
    35b4:	00000406 	br	35c8 <prvInsertBlockIntoFreeList+0x108>
                }
        }
        else
        {
                pxBlockToInsert->pxNextFreeBlock = pxIterator->pxNextFreeBlock;
    35b8:	e0bffd17 	ldw	r2,-12(fp)
    35bc:	10c00017 	ldw	r3,0(r2)
    35c0:	e0bfff17 	ldw	r2,-4(fp)
    35c4:	10c00015 	stw	r3,0(r2)

        /* If the block being inserted plugged a gab, so was merged with the block
        before and the block after, then it's pxNextFreeBlock pointer will have
        already been set, and should not be set here as that would make it point
        to itself. */
        if( pxIterator != pxBlockToInsert )
    35c8:	e0fffd17 	ldw	r3,-12(fp)
    35cc:	e0bfff17 	ldw	r2,-4(fp)
    35d0:	18800326 	beq	r3,r2,35e0 <prvInsertBlockIntoFreeList+0x120>
        {
                pxIterator->pxNextFreeBlock = pxBlockToInsert;
    35d4:	e0bffd17 	ldw	r2,-12(fp)
    35d8:	e0ffff17 	ldw	r3,-4(fp)
    35dc:	10c00015 	stw	r3,0(r2)
        }
}
    35e0:	0001883a 	nop
    35e4:	e037883a 	mov	sp,fp
    35e8:	df000017 	ldw	fp,0(sp)
    35ec:	dec00104 	addi	sp,sp,4
    35f0:	f800283a 	ret

000035f4 <vListInitialise>:
/*-----------------------------------------------------------
 * PUBLIC LIST API documented in list.h
 *----------------------------------------------------------*/

void vListInitialise( List_t * const pxList )
{
    35f4:	defffe04 	addi	sp,sp,-8
    35f8:	df000115 	stw	fp,4(sp)
    35fc:	df000104 	addi	fp,sp,4
    3600:	e13fff15 	stw	r4,-4(fp)
	/* The list structure contains a list item which is used to mark the
	end of the list.  To initialise the list the list end is inserted
	as the only list entry. */
	pxList->pxIndex = ( ListItem_t * ) &( pxList->xListEnd );			/*lint !e826 !e740 The mini list structure is used as the list end to save RAM.  This is checked and valid. */
    3604:	e0bfff17 	ldw	r2,-4(fp)
    3608:	10c00204 	addi	r3,r2,8
    360c:	e0bfff17 	ldw	r2,-4(fp)
    3610:	10c00115 	stw	r3,4(r2)

	/* The list end value is the highest possible value in the list to
	ensure it remains at the end of the list. */
	pxList->xListEnd.xItemValue = portMAX_DELAY;
    3614:	e0bfff17 	ldw	r2,-4(fp)
    3618:	00ffffc4 	movi	r3,-1
    361c:	10c00215 	stw	r3,8(r2)

	/* The list end next and previous pointers point to itself so we know
	when the list is empty. */
	pxList->xListEnd.pxNext = ( ListItem_t * ) &( pxList->xListEnd );	/*lint !e826 !e740 The mini list structure is used as the list end to save RAM.  This is checked and valid. */
    3620:	e0bfff17 	ldw	r2,-4(fp)
    3624:	10c00204 	addi	r3,r2,8
    3628:	e0bfff17 	ldw	r2,-4(fp)
    362c:	10c00315 	stw	r3,12(r2)
	pxList->xListEnd.pxPrevious = ( ListItem_t * ) &( pxList->xListEnd );/*lint !e826 !e740 The mini list structure is used as the list end to save RAM.  This is checked and valid. */
    3630:	e0bfff17 	ldw	r2,-4(fp)
    3634:	10c00204 	addi	r3,r2,8
    3638:	e0bfff17 	ldw	r2,-4(fp)
    363c:	10c00415 	stw	r3,16(r2)

	pxList->uxNumberOfItems = ( UBaseType_t ) 0U;
    3640:	e0bfff17 	ldw	r2,-4(fp)
    3644:	10000015 	stw	zero,0(r2)

	/* Write known values into the list if
	configUSE_LIST_DATA_INTEGRITY_CHECK_BYTES is set to 1. */
	listSET_LIST_INTEGRITY_CHECK_1_VALUE( pxList );
	listSET_LIST_INTEGRITY_CHECK_2_VALUE( pxList );
}
    3648:	0001883a 	nop
    364c:	e037883a 	mov	sp,fp
    3650:	df000017 	ldw	fp,0(sp)
    3654:	dec00104 	addi	sp,sp,4
    3658:	f800283a 	ret

0000365c <vListInitialiseItem>:
/*-----------------------------------------------------------*/

void vListInitialiseItem( ListItem_t * const pxItem )
{
    365c:	defffe04 	addi	sp,sp,-8
    3660:	df000115 	stw	fp,4(sp)
    3664:	df000104 	addi	fp,sp,4
    3668:	e13fff15 	stw	r4,-4(fp)
	/* Make sure the list item is not recorded as being on a list. */
	pxItem->pvContainer = NULL;
    366c:	e0bfff17 	ldw	r2,-4(fp)
    3670:	10000415 	stw	zero,16(r2)

	/* Write known values into the list item if
	configUSE_LIST_DATA_INTEGRITY_CHECK_BYTES is set to 1. */
	listSET_FIRST_LIST_ITEM_INTEGRITY_CHECK_VALUE( pxItem );
	listSET_SECOND_LIST_ITEM_INTEGRITY_CHECK_VALUE( pxItem );
}
    3674:	0001883a 	nop
    3678:	e037883a 	mov	sp,fp
    367c:	df000017 	ldw	fp,0(sp)
    3680:	dec00104 	addi	sp,sp,4
    3684:	f800283a 	ret

00003688 <vListInsertEnd>:
/*-----------------------------------------------------------*/

void vListInsertEnd( List_t * const pxList, ListItem_t * const pxNewListItem )
{
    3688:	defffc04 	addi	sp,sp,-16
    368c:	df000315 	stw	fp,12(sp)
    3690:	df000304 	addi	fp,sp,12
    3694:	e13ffe15 	stw	r4,-8(fp)
    3698:	e17fff15 	stw	r5,-4(fp)
ListItem_t * const pxIndex = pxList->pxIndex;
    369c:	e0bffe17 	ldw	r2,-8(fp)
    36a0:	10800117 	ldw	r2,4(r2)
    36a4:	e0bffd15 	stw	r2,-12(fp)
	listTEST_LIST_ITEM_INTEGRITY( pxNewListItem );

	/* Insert a new list item into pxList, but rather than sort the list,
	makes the new list item the last item to be removed by a call to
	listGET_OWNER_OF_NEXT_ENTRY(). */
	pxNewListItem->pxNext = pxIndex;
    36a8:	e0bfff17 	ldw	r2,-4(fp)
    36ac:	e0fffd17 	ldw	r3,-12(fp)
    36b0:	10c00115 	stw	r3,4(r2)
	pxNewListItem->pxPrevious = pxIndex->pxPrevious;
    36b4:	e0bffd17 	ldw	r2,-12(fp)
    36b8:	10c00217 	ldw	r3,8(r2)
    36bc:	e0bfff17 	ldw	r2,-4(fp)
    36c0:	10c00215 	stw	r3,8(r2)
	pxIndex->pxPrevious->pxNext = pxNewListItem;
    36c4:	e0bffd17 	ldw	r2,-12(fp)
    36c8:	10800217 	ldw	r2,8(r2)
    36cc:	e0ffff17 	ldw	r3,-4(fp)
    36d0:	10c00115 	stw	r3,4(r2)
	pxIndex->pxPrevious = pxNewListItem;
    36d4:	e0bffd17 	ldw	r2,-12(fp)
    36d8:	e0ffff17 	ldw	r3,-4(fp)
    36dc:	10c00215 	stw	r3,8(r2)

	/* Remember which list the item is in. */
	pxNewListItem->pvContainer = ( void * ) pxList;
    36e0:	e0bfff17 	ldw	r2,-4(fp)
    36e4:	e0fffe17 	ldw	r3,-8(fp)
    36e8:	10c00415 	stw	r3,16(r2)

	( pxList->uxNumberOfItems )++;
    36ec:	e0bffe17 	ldw	r2,-8(fp)
    36f0:	10800017 	ldw	r2,0(r2)
    36f4:	10c00044 	addi	r3,r2,1
    36f8:	e0bffe17 	ldw	r2,-8(fp)
    36fc:	10c00015 	stw	r3,0(r2)
}
    3700:	0001883a 	nop
    3704:	e037883a 	mov	sp,fp
    3708:	df000017 	ldw	fp,0(sp)
    370c:	dec00104 	addi	sp,sp,4
    3710:	f800283a 	ret

00003714 <vListInsert>:
/*-----------------------------------------------------------*/

void vListInsert( List_t * const pxList, ListItem_t * const pxNewListItem )
{
    3714:	defffb04 	addi	sp,sp,-20
    3718:	df000415 	stw	fp,16(sp)
    371c:	df000404 	addi	fp,sp,16
    3720:	e13ffe15 	stw	r4,-8(fp)
    3724:	e17fff15 	stw	r5,-4(fp)
ListItem_t *pxIterator;
const TickType_t xValueOfInsertion = pxNewListItem->xItemValue;
    3728:	e0bfff17 	ldw	r2,-4(fp)
    372c:	10800017 	ldw	r2,0(r2)
    3730:	e0bffd15 	stw	r2,-12(fp)
	new list item should be placed after it.  This ensures that TCB's which are
	stored in ready lists (all of which have the same xItemValue value) get a
	share of the CPU.  However, if the xItemValue is the same as the back marker
	the iteration loop below will not end.  Therefore the value is checked
	first, and the algorithm slightly modified if necessary. */
	if( xValueOfInsertion == portMAX_DELAY )
    3734:	e0bffd17 	ldw	r2,-12(fp)
    3738:	10bfffd8 	cmpnei	r2,r2,-1
    373c:	1000041e 	bne	r2,zero,3750 <vListInsert+0x3c>
	{
		pxIterator = pxList->xListEnd.pxPrevious;
    3740:	e0bffe17 	ldw	r2,-8(fp)
    3744:	10800417 	ldw	r2,16(r2)
    3748:	e0bffc15 	stw	r2,-16(fp)
    374c:	00000c06 	br	3780 <vListInsert+0x6c>
			4) Using a queue or semaphore before it has been initialised or
			   before the scheduler has been started (are interrupts firing
			   before vTaskStartScheduler() has been called?).
		**********************************************************************/

		for( pxIterator = ( ListItem_t * ) &( pxList->xListEnd ); pxIterator->pxNext->xItemValue <= xValueOfInsertion; pxIterator = pxIterator->pxNext ) /*lint !e826 !e740 The mini list structure is used as the list end to save RAM.  This is checked and valid. */
    3750:	e0bffe17 	ldw	r2,-8(fp)
    3754:	10800204 	addi	r2,r2,8
    3758:	e0bffc15 	stw	r2,-16(fp)
    375c:	00000306 	br	376c <vListInsert+0x58>
    3760:	e0bffc17 	ldw	r2,-16(fp)
    3764:	10800117 	ldw	r2,4(r2)
    3768:	e0bffc15 	stw	r2,-16(fp)
    376c:	e0bffc17 	ldw	r2,-16(fp)
    3770:	10800117 	ldw	r2,4(r2)
    3774:	10800017 	ldw	r2,0(r2)
    3778:	e0fffd17 	ldw	r3,-12(fp)
    377c:	18bff82e 	bgeu	r3,r2,3760 <__alt_data_end+0xf0003760>
			/* There is nothing to do here, just iterating to the wanted
			insertion position. */
		}
	}

	pxNewListItem->pxNext = pxIterator->pxNext;
    3780:	e0bffc17 	ldw	r2,-16(fp)
    3784:	10c00117 	ldw	r3,4(r2)
    3788:	e0bfff17 	ldw	r2,-4(fp)
    378c:	10c00115 	stw	r3,4(r2)
	pxNewListItem->pxNext->pxPrevious = pxNewListItem;
    3790:	e0bfff17 	ldw	r2,-4(fp)
    3794:	10800117 	ldw	r2,4(r2)
    3798:	e0ffff17 	ldw	r3,-4(fp)
    379c:	10c00215 	stw	r3,8(r2)
	pxNewListItem->pxPrevious = pxIterator;
    37a0:	e0bfff17 	ldw	r2,-4(fp)
    37a4:	e0fffc17 	ldw	r3,-16(fp)
    37a8:	10c00215 	stw	r3,8(r2)
	pxIterator->pxNext = pxNewListItem;
    37ac:	e0bffc17 	ldw	r2,-16(fp)
    37b0:	e0ffff17 	ldw	r3,-4(fp)
    37b4:	10c00115 	stw	r3,4(r2)

	/* Remember which list the item is in.  This allows fast removal of the
	item later. */
	pxNewListItem->pvContainer = ( void * ) pxList;
    37b8:	e0bfff17 	ldw	r2,-4(fp)
    37bc:	e0fffe17 	ldw	r3,-8(fp)
    37c0:	10c00415 	stw	r3,16(r2)

	( pxList->uxNumberOfItems )++;
    37c4:	e0bffe17 	ldw	r2,-8(fp)
    37c8:	10800017 	ldw	r2,0(r2)
    37cc:	10c00044 	addi	r3,r2,1
    37d0:	e0bffe17 	ldw	r2,-8(fp)
    37d4:	10c00015 	stw	r3,0(r2)
}
    37d8:	0001883a 	nop
    37dc:	e037883a 	mov	sp,fp
    37e0:	df000017 	ldw	fp,0(sp)
    37e4:	dec00104 	addi	sp,sp,4
    37e8:	f800283a 	ret

000037ec <uxListRemove>:
/*-----------------------------------------------------------*/

UBaseType_t uxListRemove( ListItem_t * const pxItemToRemove )
{
    37ec:	defffd04 	addi	sp,sp,-12
    37f0:	df000215 	stw	fp,8(sp)
    37f4:	df000204 	addi	fp,sp,8
    37f8:	e13fff15 	stw	r4,-4(fp)
/* The list item knows which list it is in.  Obtain the list from the list
item. */
List_t * const pxList = ( List_t * ) pxItemToRemove->pvContainer;
    37fc:	e0bfff17 	ldw	r2,-4(fp)
    3800:	10800417 	ldw	r2,16(r2)
    3804:	e0bffe15 	stw	r2,-8(fp)

	pxItemToRemove->pxNext->pxPrevious = pxItemToRemove->pxPrevious;
    3808:	e0bfff17 	ldw	r2,-4(fp)
    380c:	10800117 	ldw	r2,4(r2)
    3810:	e0ffff17 	ldw	r3,-4(fp)
    3814:	18c00217 	ldw	r3,8(r3)
    3818:	10c00215 	stw	r3,8(r2)
	pxItemToRemove->pxPrevious->pxNext = pxItemToRemove->pxNext;
    381c:	e0bfff17 	ldw	r2,-4(fp)
    3820:	10800217 	ldw	r2,8(r2)
    3824:	e0ffff17 	ldw	r3,-4(fp)
    3828:	18c00117 	ldw	r3,4(r3)
    382c:	10c00115 	stw	r3,4(r2)

	/* Make sure the index is left pointing to a valid item. */
	if( pxList->pxIndex == pxItemToRemove )
    3830:	e0bffe17 	ldw	r2,-8(fp)
    3834:	10c00117 	ldw	r3,4(r2)
    3838:	e0bfff17 	ldw	r2,-4(fp)
    383c:	1880041e 	bne	r3,r2,3850 <uxListRemove+0x64>
	{
		pxList->pxIndex = pxItemToRemove->pxPrevious;
    3840:	e0bfff17 	ldw	r2,-4(fp)
    3844:	10c00217 	ldw	r3,8(r2)
    3848:	e0bffe17 	ldw	r2,-8(fp)
    384c:	10c00115 	stw	r3,4(r2)
	else
	{
		mtCOVERAGE_TEST_MARKER();
	}

	pxItemToRemove->pvContainer = NULL;
    3850:	e0bfff17 	ldw	r2,-4(fp)
    3854:	10000415 	stw	zero,16(r2)
	( pxList->uxNumberOfItems )--;
    3858:	e0bffe17 	ldw	r2,-8(fp)
    385c:	10800017 	ldw	r2,0(r2)
    3860:	10ffffc4 	addi	r3,r2,-1
    3864:	e0bffe17 	ldw	r2,-8(fp)
    3868:	10c00015 	stw	r3,0(r2)

	return pxList->uxNumberOfItems;
    386c:	e0bffe17 	ldw	r2,-8(fp)
    3870:	10800017 	ldw	r2,0(r2)
}
    3874:	e037883a 	mov	sp,fp
    3878:	df000017 	ldw	fp,0(sp)
    387c:	dec00104 	addi	sp,sp,4
    3880:	f800283a 	ret

00003884 <vApplicationStackOverflowHook>:
#define configTICK_RATE_HZ 1000
#define configCPU_CLOCK_HZ TIMER1MS_FREQ
#define SYS_CLK_IRQ TIMER1MS_IRQ
//stack overflow hook
void vApplicationStackOverflowHook(TaskHandle_t *pxTask, signed char *pcTaskName )
{
    3884:	defffc04 	addi	sp,sp,-16
    3888:	dfc00315 	stw	ra,12(sp)
    388c:	df000215 	stw	fp,8(sp)
    3890:	df000204 	addi	fp,sp,8
    3894:	e13ffe15 	stw	r4,-8(fp)
    3898:	e17fff15 	stw	r5,-4(fp)
	printf("[free_rtos] Application stack overflow at task: %s\n", pcTaskName);
    389c:	e17fff17 	ldw	r5,-4(fp)
    38a0:	01020034 	movhi	r4,2048
    38a4:	2100c904 	addi	r4,r4,804
    38a8:	000bc080 	call	bc08 <printf>
}
    38ac:	0001883a 	nop
    38b0:	e037883a 	mov	sp,fp
    38b4:	dfc00117 	ldw	ra,4(sp)
    38b8:	df000017 	ldw	fp,0(sp)
    38bc:	dec00204 	addi	sp,sp,8
    38c0:	f800283a 	ret

000038c4 <prvReadGp>:
void vPortSysTickHandler( void * context, alt_u32 id );

/*-----------------------------------------------------------*/

static void prvReadGp( uint32_t *ulValue )
{
    38c4:	defffe04 	addi	sp,sp,-8
    38c8:	df000115 	stw	fp,4(sp)
    38cc:	df000104 	addi	fp,sp,4
    38d0:	e13fff15 	stw	r4,-4(fp)
	asm( "stw gp, (%0)" :: "r"(ulValue) );
    38d4:	e0bfff17 	ldw	r2,-4(fp)
    38d8:	16800015 	stw	gp,0(r2)
}
    38dc:	0001883a 	nop
    38e0:	e037883a 	mov	sp,fp
    38e4:	df000017 	ldw	fp,0(sp)
    38e8:	dec00104 	addi	sp,sp,4
    38ec:	f800283a 	ret

000038f0 <pxPortInitialiseStack>:

/* 
 * See header file for description. 
 */
StackType_t *pxPortInitialiseStack( StackType_t *pxTopOfStack, TaskFunction_t pxCode, void *pvParameters )
{    
    38f0:	defff904 	addi	sp,sp,-28
    38f4:	dfc00615 	stw	ra,24(sp)
    38f8:	df000515 	stw	fp,20(sp)
    38fc:	df000504 	addi	fp,sp,20
    3900:	e13ffd15 	stw	r4,-12(fp)
    3904:	e17ffe15 	stw	r5,-8(fp)
    3908:	e1bfff15 	stw	r6,-4(fp)
StackType_t *pxFramePointer = pxTopOfStack - 1;
    390c:	e0bffd17 	ldw	r2,-12(fp)
    3910:	10bfff04 	addi	r2,r2,-4
    3914:	e0bffb15 	stw	r2,-20(fp)
StackType_t xGlobalPointer;

    prvReadGp( &xGlobalPointer ); 
    3918:	e0bffc04 	addi	r2,fp,-16
    391c:	1009883a 	mov	r4,r2
    3920:	00038c40 	call	38c4 <prvReadGp>

    /* End of stack marker. */
    *pxTopOfStack = 0xdeadbeef;
    3924:	e0fffd17 	ldw	r3,-12(fp)
    3928:	00b7abb4 	movhi	r2,57006
    392c:	10afbbc4 	addi	r2,r2,-16657
    3930:	18800015 	stw	r2,0(r3)
    pxTopOfStack--;
    3934:	e0bffd17 	ldw	r2,-12(fp)
    3938:	10bfff04 	addi	r2,r2,-4
    393c:	e0bffd15 	stw	r2,-12(fp)
    
    *pxTopOfStack = ( StackType_t ) pxFramePointer; 
    3940:	e0fffb17 	ldw	r3,-20(fp)
    3944:	e0bffd17 	ldw	r2,-12(fp)
    3948:	10c00015 	stw	r3,0(r2)
    pxTopOfStack--;
    394c:	e0bffd17 	ldw	r2,-12(fp)
    3950:	10bfff04 	addi	r2,r2,-4
    3954:	e0bffd15 	stw	r2,-12(fp)
    
    *pxTopOfStack = xGlobalPointer; 
    3958:	e0fffc17 	ldw	r3,-16(fp)
    395c:	e0bffd17 	ldw	r2,-12(fp)
    3960:	10c00015 	stw	r3,0(r2)
    
    /* Space for R23 to R16. */
    pxTopOfStack -= 9;
    3964:	e0bffd17 	ldw	r2,-12(fp)
    3968:	10bff704 	addi	r2,r2,-36
    396c:	e0bffd15 	stw	r2,-12(fp)

    *pxTopOfStack = ( StackType_t ) pxCode; 
    3970:	e0fffe17 	ldw	r3,-8(fp)
    3974:	e0bffd17 	ldw	r2,-12(fp)
    3978:	10c00015 	stw	r3,0(r2)
    pxTopOfStack--;
    397c:	e0bffd17 	ldw	r2,-12(fp)
    3980:	10bfff04 	addi	r2,r2,-4
    3984:	e0bffd15 	stw	r2,-12(fp)

    *pxTopOfStack = portINITIAL_ESTATUS; 
    3988:	e0bffd17 	ldw	r2,-12(fp)
    398c:	00c00044 	movi	r3,1
    3990:	10c00015 	stw	r3,0(r2)

    /* Space for R15 to R5. */    
    pxTopOfStack -= 12;
    3994:	e0bffd17 	ldw	r2,-12(fp)
    3998:	10bff404 	addi	r2,r2,-48
    399c:	e0bffd15 	stw	r2,-12(fp)
    
    *pxTopOfStack = ( StackType_t ) pvParameters; 
    39a0:	e0ffff17 	ldw	r3,-4(fp)
    39a4:	e0bffd17 	ldw	r2,-12(fp)
    39a8:	10c00015 	stw	r3,0(r2)

    /* Space for R3 to R1, muldiv and RA. */
    pxTopOfStack -= 5;
    39ac:	e0bffd17 	ldw	r2,-12(fp)
    39b0:	10bffb04 	addi	r2,r2,-20
    39b4:	e0bffd15 	stw	r2,-12(fp)
    
    return pxTopOfStack;
    39b8:	e0bffd17 	ldw	r2,-12(fp)
}
    39bc:	e037883a 	mov	sp,fp
    39c0:	dfc00117 	ldw	ra,4(sp)
    39c4:	df000017 	ldw	fp,0(sp)
    39c8:	dec00204 	addi	sp,sp,8
    39cc:	f800283a 	ret

000039d0 <xPortStartScheduler>:

/* 
 * See header file for description. 
 */
BaseType_t xPortStartScheduler( void )
{
    39d0:	defffe04 	addi	sp,sp,-8
    39d4:	dfc00115 	stw	ra,4(sp)
    39d8:	df000015 	stw	fp,0(sp)
    39dc:	d839883a 	mov	fp,sp
	/* Start the timer that generates the tick ISR.  Interrupts are disabled
	here already. */
	prvSetupTimerInterrupt();
    39e0:	0003a280 	call	3a28 <prvSetupTimerInterrupt>
    39e4:	00800034 	movhi	r2,0
	
	/* Start the first task. */
    asm volatile (  " movia r2, restore_sp_from_pxCurrentTCB        \n"
    39e8:	10803104 	addi	r2,r2,196
    39ec:	1000683a 	jmp	r2
                    " jmp r2                                          " );

	/* Should not get here! */
	return 0;
    39f0:	0005883a 	mov	r2,zero
}
    39f4:	e037883a 	mov	sp,fp
    39f8:	dfc00117 	ldw	ra,4(sp)
    39fc:	df000017 	ldw	fp,0(sp)
    3a00:	dec00204 	addi	sp,sp,8
    3a04:	f800283a 	ret

00003a08 <vPortEndScheduler>:
/*-----------------------------------------------------------*/

void vPortEndScheduler( void )
{
    3a08:	deffff04 	addi	sp,sp,-4
    3a0c:	df000015 	stw	fp,0(sp)
    3a10:	d839883a 	mov	fp,sp
	/* It is unlikely that the NIOS2 port will require this function as there
	is nothing to return to.  */
}
    3a14:	0001883a 	nop
    3a18:	e037883a 	mov	sp,fp
    3a1c:	df000017 	ldw	fp,0(sp)
    3a20:	dec00104 	addi	sp,sp,4
    3a24:	f800283a 	ret

00003a28 <prvSetupTimerInterrupt>:
/*
 * Setup the systick timer to generate the tick interrupts at the required
 * frequency.
 */
void prvSetupTimerInterrupt( void )
{
    3a28:	defffe04 	addi	sp,sp,-8
    3a2c:	dfc00115 	stw	ra,4(sp)
    3a30:	df000015 	stw	fp,0(sp)
    3a34:	d839883a 	mov	fp,sp
	/* Try to register the interrupt handler. */
	if ( -EINVAL == alt_irq_register( SYS_CLK_IRQ, 0x0, vPortSysTickHandler ) )
    3a38:	01800034 	movhi	r6,0
    3a3c:	318eb104 	addi	r6,r6,15044
    3a40:	000b883a 	mov	r5,zero
    3a44:	0009883a 	mov	r4,zero
    3a48:	0003b100 	call	3b10 <alt_irq_register>
    3a4c:	10bffa98 	cmpnei	r2,r2,-22
    3a50:	1000021e 	bne	r2,zero,3a5c <prvSetupTimerInterrupt+0x34>
	{ 
		/* Failed to install the Interrupt Handler. */
		asm( "break" );
    3a54:	003da03a 	break	0
    3a58:	00001006 	br	3a9c <prvSetupTimerInterrupt+0x74>
	}
	else
	{
		/* Configure SysTick to interrupt at the requested rate. */
		IOWR_ALTERA_AVALON_TIMER_CONTROL( SYS_CLK_BASE, ALTERA_AVALON_TIMER_CONTROL_STOP_MSK );
    3a5c:	00c00204 	movi	r3,8
    3a60:	00800134 	movhi	r2,4
    3a64:	108c1104 	addi	r2,r2,12356
    3a68:	10c00035 	stwio	r3,0(r2)
		IOWR_ALTERA_AVALON_TIMER_PERIODL( SYS_CLK_BASE, ( configCPU_CLOCK_HZ / configTICK_RATE_HZ ) & 0xFFFF );
    3a6c:	00e1a814 	movui	r3,34464
    3a70:	00800134 	movhi	r2,4
    3a74:	108c1204 	addi	r2,r2,12360
    3a78:	10c00035 	stwio	r3,0(r2)
		IOWR_ALTERA_AVALON_TIMER_PERIODH( SYS_CLK_BASE, ( configCPU_CLOCK_HZ / configTICK_RATE_HZ ) >> 16 );
    3a7c:	00c00044 	movi	r3,1
    3a80:	00800134 	movhi	r2,4
    3a84:	108c1304 	addi	r2,r2,12364
    3a88:	10c00035 	stwio	r3,0(r2)
		IOWR_ALTERA_AVALON_TIMER_CONTROL( SYS_CLK_BASE, ALTERA_AVALON_TIMER_CONTROL_CONT_MSK | ALTERA_AVALON_TIMER_CONTROL_START_MSK | ALTERA_AVALON_TIMER_CONTROL_ITO_MSK );	
    3a8c:	00c001c4 	movi	r3,7
    3a90:	00800134 	movhi	r2,4
    3a94:	108c1104 	addi	r2,r2,12356
    3a98:	10c00035 	stwio	r3,0(r2)
	} 

	/* Clear any already pending interrupts generated by the Timer. */
	IOWR_ALTERA_AVALON_TIMER_STATUS( SYS_CLK_BASE, ~ALTERA_AVALON_TIMER_STATUS_TO_MSK );
    3a9c:	00ffff84 	movi	r3,-2
    3aa0:	00800134 	movhi	r2,4
    3aa4:	108c1004 	addi	r2,r2,12352
    3aa8:	10c00035 	stwio	r3,0(r2)
}
    3aac:	0001883a 	nop
    3ab0:	e037883a 	mov	sp,fp
    3ab4:	dfc00117 	ldw	ra,4(sp)
    3ab8:	df000017 	ldw	fp,0(sp)
    3abc:	dec00204 	addi	sp,sp,8
    3ac0:	f800283a 	ret

00003ac4 <vPortSysTickHandler>:
/*-----------------------------------------------------------*/

void vPortSysTickHandler( void * context, alt_u32 id )
{
    3ac4:	defffc04 	addi	sp,sp,-16
    3ac8:	dfc00315 	stw	ra,12(sp)
    3acc:	df000215 	stw	fp,8(sp)
    3ad0:	df000204 	addi	fp,sp,8
    3ad4:	e13ffe15 	stw	r4,-8(fp)
    3ad8:	e17fff15 	stw	r5,-4(fp)
	/* Increment the kernel tick. */
	if( xTaskIncrementTick() != pdFALSE )
    3adc:	00053400 	call	5340 <xTaskIncrementTick>
    3ae0:	10000126 	beq	r2,zero,3ae8 <vPortSysTickHandler+0x24>
	{
        vTaskSwitchContext();
    3ae4:	00055040 	call	5504 <vTaskSwitchContext>
	}
		
	/* Clear the interrupt. */
	IOWR_ALTERA_AVALON_TIMER_STATUS( SYS_CLK_BASE, ~ALTERA_AVALON_TIMER_STATUS_TO_MSK );
    3ae8:	00ffff84 	movi	r3,-2
    3aec:	00800134 	movhi	r2,4
    3af0:	108c1004 	addi	r2,r2,12352
    3af4:	10c00035 	stwio	r3,0(r2)
}
    3af8:	0001883a 	nop
    3afc:	e037883a 	mov	sp,fp
    3b00:	dfc00117 	ldw	ra,4(sp)
    3b04:	df000017 	ldw	fp,0(sp)
    3b08:	dec00204 	addi	sp,sp,8
    3b0c:	f800283a 	ret

00003b10 <alt_irq_register>:
 * when it is registered. Interrupts should only be enabled after the FreeRTOS.org
 * kernel has its scheduler started so that contexts are saved and switched 
 * correctly.
 */
int alt_irq_register( alt_u32 id, void* context, void (*handler)(void*, alt_u32) )
{
    3b10:	defff104 	addi	sp,sp,-60
